ccopy_reg
_reconstructor
p0
(cpsychopy.data.experiment
ExperimentHandler
p1
c__builtin__
object
p2
Ntp3
Rp4
(dp5
S'originPath'
p6
VC:\u005cUsers\u005cgost\u005cDesktop\u005clogo_experiment\u005cgo-nogo.psyexp
p7
sS'dataFileName'
p8
VC:\u005cUsers\u005cgost\u005cDesktop\u005clogo_experiment\u005cdata/24_go-nogo_2018_Jul_09_0542
p9
sS'runtimeInfo'
p10
NsS'name'
p11
S'go-nogo'
p12
sS'dataNames'
p13
(lp14
S'key_resp_3.keys'
p15
aS'key_resp_3.rt'
p16
aS'key_resp_2.keys'
p17
aS'key_resp_2.corr'
p18
aS'key_resp_2.rt'
p19
asS'autoLog'
p20
I01
sS'extraInfo'
p21
(dp22
S'date'
p23
V2018_Jul_09_0542
p24
sS'frameRate'
p25
cnumpy.core.multiarray
scalar
p26
(cnumpy
dtype
p27
(S'f8'
p28
I0
I1
tp29
Rp30
(I3
S'<'
p31
NNNI-1
I-1
I0
tp32
bS'\xf0\x03c\xc8\xc1%N@'
p33
tp34
Rp35
sS'expName'
p36
g12
sS'session'
p37
S'001'
p38
sS'participant'
p39
g0
(cfuture.types.newstr
newstr
p40
c__builtin__
unicode
p41
V24
p42
tp43
Rp44
ssS'loopsUnfinished'
p45
(lp46
g0
(cpsychopy.data.trial
TrialHandler
p47
g2
Ntp48
Rp49
(dp50
S'origin'
p51
NsS'thisTrial'
p52
ccollections
OrderedDict
p53
((lp54
(lp55
S'pix'
p56
aVlogos/1.jpg
p57
aa(lp58
S'source'
p59
aVproperties1.xlsx
p60
aatp61
Rp62
sS'_exp'
p63
I452689808
sg11
S'trials_2'
p64
sg6
I-1
sS'thisRepN'
p65
I0
sg20
I01
sg21
g22
sS'data'
p66
g0
(cpsychopy.data.base
DataHandler
p67
c__builtin__
dict
p68
(dp69
S'ran'
p70
cnumpy.ma.core
_mareconstruct
p71
(cnumpy.ma.core
MaskedArray
p72
cnumpy
ndarray
p73
(I0
tp74
S'b'
p75
tp76
Rp77
(I1
(I4
I1
tp78
g27
(S'f4'
p79
I0
I1
tp80
Rp81
(I3
S'<'
p82
NNNI-1
I-1
I0
tp83
bI00
S'\x00\x00\x80?\x00\x00\x00\x00\x00\x00\x80?\x00\x00\x00\x00'
p84
S'\x00\x00\x00\x00'
p85
Ntp86
bsg15
cnumpy.core.multiarray
_reconstruct
p87
(g73
(I0
tp88
g75
tp89
Rp90
(I1
(I4
I1
tp91
g27
(S'O4'
p92
I0
I1
tp93
Rp94
(I3
S'|'
p95
NNNI-1
I-1
I63
tp96
bI00
(lp97
S'space'
p98
aS'--'
p99
aS'space'
p100
aS'--'
p101
atp102
bsS'order'
p103
g71
(g72
g73
g74
g75
tp104
Rp105
(I1
(I4
I1
tp106
g81
I00
S'\x00\x00\x80?\x00\x00\x00\x00\x00\x00\x00\x00\x00\x00\x00\x00'
p107
S'\x00\x01\x00\x01'
p108
Ntp109
bsg16
g71
(g72
g73
g74
g75
tp110
Rp111
(I1
(I4
I1
tp112
g81
I00
S'Y$\x1b@\x00\x00\x00\x00W\x89KA\x00\x00\x00\x00'
p113
S'\x00\x01\x00\x01'
p114
Ntp115
bstp116
Rp117
(dp118
S'isNumeric'
p119
(dp120
g70
I01
sg15
I00
sg103
I01
sg16
I01
ssS'trials'
p121
g49
sS'dataTypes'
p122
(lp123
g70
ag103
ag15
ag16
asS'dataShape'
p124
(lp125
I4
aI1
asbsS'method'
p126
S'random'
p127
sS'sequenceIndices'
p128
g87
(g73
(I0
tp129
g75
tp130
Rp131
(I1
(I4
I1
tp132
g27
(S'i4'
p133
I0
I1
tp134
Rp135
(I3
S'<'
p136
NNNI-1
I-1
I0
tp137
bI00
S'\x02\x00\x00\x00\x00\x00\x00\x00\x01\x00\x00\x00\x03\x00\x00\x00'
p138
tp139
bsS'finished'
p140
I00
sS'nReps'
p141
I1
sS'nRemaining'
p142
I2
sS'trialList'
p143
(lp144
g62
ag53
((lp145
(lp146
g56
aVlogos/2.jpg
p147
aa(lp148
g59
aVproperties2.xlsx
p149
aatp150
Rp151
ag53
((lp152
(lp153
g56
aVlogos/3.jpg
p154
aa(lp155
g59
aVproperties3.xlsx
p156
aatp157
Rp158
ag53
((lp159
(lp160
g56
aVlogos/4.jpg
p161
aa(lp162
g59
aVproperties4.xlsx
p163
aatp164
Rp165
asS'seed'
p166
NsS'thisIndex'
p167
g26
(g135
S'\x00\x00\x00\x00'
p168
tp169
Rp170
sS'thisN'
p171
I1
sS'thisTrialN'
p172
I1
sS'nTotal'
p173
I4
sbag0
(g47
g2
Ntp174
Rp175
(dp176
g51
Nsg52
g53
((lp177
(lp178
S'image1'
p179
aVfrogs/ab40.jpg
p180
aa(lp181
S'x'
p182
ag26
(g27
(S'i8'
p183
I0
I1
tp184
Rp185
(I3
S'<'
p186
NNNI-1
I-1
I0
tp187
bS'\x00\x00\x00\x00\x00\x00\x00\x00'
p188
tp189
Rp190
aa(lp191
S'y'
p192
ag26
(g185
S'\x00\x00\x00\x00\x00\x00\x00\x00'
p193
tp194
Rp195
aa(lp196
S'size'
p197
ag26
(g185
S'\x90\x01\x00\x00\x00\x00\x00\x00'
p198
tp199
Rp200
aa(lp201
S'answer'
p202
aVl
p203
aatp204
Rp205
sg63
I452689808
sg11
g121
sg6
I-1
sg65
I0
sg20
I01
sg21
g22
sg66
g0
(g67
g68
(dp206
g70
g71
(g72
g73
g74
g75
tp207
Rp208
(I1
(I90
I1
tp209
g81
I00
S'\x00\x00\x00\x00\x00\x00\x00\x00\x00\x00\x00\x00\x00\x00\x00\x00\x00\x00\x00\x00\x00\x00\x00\x00\x00\x00\x00\x00\x00\x00\x00\x00\x00\x00\x00\x00\x00\x00\x00\x00\x00\x00\x00\x00\x00\x00\x00\x00\x00\x00\x00\x00\x00\x00\x00\x00\x00\x00\x00\x00\x00\x00\x00\x00\x00\x00\x00\x00\x00\x00\x00\x00\x00\x00\x00\x00\x00\x00\x00\x00\x00\x00\x00\x00\x00\x00\x00\x00\x00\x00\x00\x00\x00\x00\x00\x00\x00\x00\x00\x00\x00\x00\x00\x00\x00\x00\x00\x00\x00\x00\x00\x00\x00\x00\x00\x00\x00\x00\x00\x00\x00\x00\x00\x00\x00\x00\x00\x00\x00\x00\x00\x00\x00\x00\x00\x00\x00\x00\x00\x00\x00\x00\x00\x00\x00\x00\x00\x00\x00\x00\x00\x00\x00\x00\x00\x00\x00\x00\x80?\x00\x00\x00\x00\x00\x00\x00\x00\x00\x00\x00\x00\x00\x00\x00\x00\x00\x00\x00\x00\x00\x00\x00\x00\x00\x00\x00\x00\x00\x00\x00\x00\x00\x00\x00\x00\x00\x00\x00\x00\x00\x00\x00\x00\x00\x00\x00\x00\x00\x00\x00\x00\x00\x00\x00\x00\x00\x00\x00\x00\x00\x00\x00\x00\x00\x00\x00\x00\x00\x00\x00\x00\x00\x00\x00\x00\x00\x00\x00\x00\x00\x00\x00\x00\x00\x00\x00\x00\x00\x00\x00\x00\x00\x00\x00\x00\x00\x00\x00\x00\x00\x00\x00\x00\x00\x00\x00\x00\x00\x00\x00\x00\x00\x00\x00\x00\x00\x00\x00\x00\x00\x00\x00\x00\x00\x00\x00\x00\x00\x00\x00\x00\x00\x00\x00\x00\x00\x00\x00\x00\x00\x00\x00\x00\x00\x00\x00\x00\x00\x00\x00\x00\x00\x00\x00\x00\x00\x00\x00\x00\x00\x00\x00\x00\x00\x00\x00\x00\x00\x00\x00\x00\x00\x00\x00\x00\x00\x00\x00\x00\x00\x00\x00\x00\x00\x00\x00\x00\x00\x00\x00\x00\x00\x00\x00\x00\x00\x00\x00\x00'
p210
S'\x00\x00\x00\x00\x00\x00\x00\x00\x00\x00\x00\x00\x00\x00\x00\x00\x00\x00\x00\x00\x00\x00\x00\x00\x00\x00\x00\x00\x00\x00\x00\x00\x00\x00\x00\x00\x00\x00\x00\x00\x00\x00\x00\x00\x00\x00\x00\x00\x00\x00\x00\x00\x00\x00\x00\x00\x00\x00\x00\x00\x00\x00\x00\x00\x00\x00\x00\x00\x00\x00\x00\x00\x00\x00\x00\x00\x00\x00\x00\x00\x00\x00\x00\x00\x00\x00\x00\x00\x00\x00'
p211
Ntp212
bsg103
g71
(g72
g73
g74
g75
tp213
Rp214
(I1
(I90
I1
tp215
g81
I00
S'\x00\x00\x00\x00\x00\x00\x00\x00\x00\x00\x00\x00\x00\x00\x00\x00\x00\x00\x00\x00\x00\x00\x00\x00\x00\x00\x00\x00\x00\x00\x00\x00\x00\x00\x00\x00\x00\x00\x00\x00\x00\x00\x00\x00\x00\x00\x00\x00\x00\x00\x00\x00\x00\x00\x00\x00\x00\x00\x00\x00\x00\x00\x00\x00\x00\x00\x00\x00\x00\x00\x00\x00\x00\x00\x00\x00\x00\x00\x00\x00\x00\x00\x00\x00\x00\x00\x00\x00\x00\x00\x00\x00\x00\x00\x00\x00\x00\x00\x00\x00\x00\x00\x00\x00\x00\x00\x00\x00\x00\x00\x00\x00\x00\x00\x00\x00\x00\x00\x00\x00\x00\x00\x00\x00\x00\x00\x00\x00\x00\x00\x00\x00\x00\x00\x00\x00\x00\x00\x00\x00\x00\x00\x00\x00\x00\x00\x00\x00\x00\x00\x00\x00\x00\x00\x00\x00\x00\x00\x00\x00\x00\x00\x00\x00\x00\x00\x00\x00\x00\x00\x00\x00\x00\x00\x00\x00\x00\x00\x00\x00\x00\x00\x00\x00\x00\x00\x00\x00\x00\x00\x00\x00\x00\x00\x00\x00\x00\x00\x00\x00\x00\x00\x00\x00\x00\x00\x00\x00\x00\x00\x00\x00\x00\x00\x00\x00\x00\x00\x00\x00\x00\x00\x00\x00\x00\x00\x00\x00\x00\x00\x00\x00\x00\x00\x00\x00\x00\x00\x00\x00\x00\x00\x00\x00\x00\x00\x00\x00\x00\x00\x00\x00\x00\x00\x00\x00\x00\x00\x00\x00\x00\x00\x00\x00\x00\x00\x00\x00\x00\x00\x00\x00\x00\x00\x00\x00\x00\x00\x00\x00\x00\x00\x00\x00\x00\x00\x00\x00\x00\x00\x00\x00\x00\x00\x00\x00\x00\x00\x00\x00\x00\x00\x00\x00\x00\x00\x00\x00\x00\x00\x00\x00\x00\x00\x00\x00\x00\x00\x00\x00\x00\x00\x00\x00\x00\x00\x00\x00\x00\x00\x00\x00\x00\x00\x00\x00\x00\x00\x00\x00\x00\x00\x00\x00\x00\x00\x00\x00\x00\x00\x00\x00\x00\x00\x00\x00\x00\x00\x00\x00'
p216
S'\x01\x01\x01\x01\x01\x01\x01\x01\x01\x01\x01\x01\x01\x01\x01\x01\x01\x01\x01\x01\x01\x01\x01\x01\x01\x01\x01\x01\x01\x01\x01\x01\x01\x01\x01\x01\x01\x01\x01\x00\x01\x01\x01\x01\x01\x01\x01\x01\x01\x01\x01\x01\x01\x01\x01\x01\x01\x01\x01\x01\x01\x01\x01\x01\x01\x01\x01\x01\x01\x01\x01\x01\x01\x01\x01\x01\x01\x01\x01\x01\x01\x01\x01\x01\x01\x01\x01\x01\x01\x01'
p217
Ntp218
bstp219
Rp220
(dp221
g119
(dp222
g70
I01
sg103
I01
ssg121
g175
sg122
(lp223
g70
ag103
asg124
(lp224
I90
aI1
asbsg126
g127
sg128
g87
(g73
(I0
tp225
g75
tp226
Rp227
(I1
(I90
I1
tp228
g135
I00
S'\'\x00\x00\x004\x00\x00\x00\x11\x00\x00\x00\x15\x00\x00\x00\x1f\x00\x00\x00T\x00\x00\x00,\x00\x00\x00?\x00\x00\x00"\x00\x00\x00$\x00\x00\x00\x19\x00\x00\x00\x08\x00\x00\x00@\x00\x00\x00\x05\x00\x00\x00\x13\x00\x00\x00>\x00\x00\x001\x00\x00\x00\x01\x00\x00\x00=\x00\x00\x00L\x00\x00\x00R\x00\x00\x009\x00\x00\x00%\x00\x00\x00\x17\x00\x00\x00\x03\x00\x00\x00Y\x00\x00\x000\x00\x00\x00\x04\x00\x00\x00<\x00\x00\x00\x02\x00\x00\x00\t\x00\x00\x00M\x00\x00\x00\x1d\x00\x00\x00\x0b\x00\x00\x00\x12\x00\x00\x00D\x00\x00\x00;\x00\x00\x007\x00\x00\x00\x14\x00\x00\x00U\x00\x00\x00#\x00\x00\x00\x1b\x00\x00\x00/\x00\x00\x00\x00\x00\x00\x00B\x00\x00\x00\x0f\x00\x00\x002\x00\x00\x00\x1a\x00\x00\x00K\x00\x00\x00.\x00\x00\x00A\x00\x00\x006\x00\x00\x00!\x00\x00\x00P\x00\x00\x00Q\x00\x00\x00\x18\x00\x00\x00 \x00\x00\x00J\x00\x00\x00S\x00\x00\x00\x0e\x00\x00\x00\x10\x00\x00\x00\x1e\x00\x00\x00\x16\x00\x00\x00N\x00\x00\x008\x00\x00\x00W\x00\x00\x00:\x00\x00\x00G\x00\x00\x00\x1c\x00\x00\x00\r\x00\x00\x00\x0c\x00\x00\x00*\x00\x00\x00C\x00\x00\x00I\x00\x00\x00\n\x00\x00\x00&\x00\x00\x00H\x00\x00\x005\x00\x00\x00\x07\x00\x00\x00(\x00\x00\x00F\x00\x00\x00X\x00\x00\x003\x00\x00\x00-\x00\x00\x00V\x00\x00\x00)\x00\x00\x00+\x00\x00\x00O\x00\x00\x00\x06\x00\x00\x00E\x00\x00\x00'
p229
tp230
bsg140
I00
sg141
I1
sg142
I89
sg143
(lp231
g53
((lp232
(lp233
g179
aVfrogs/ab1.jpg
p234
aa(lp235
g182
ag26
(g185
S'\x00\x00\x00\x00\x00\x00\x00\x00'
p236
tp237
Rp238
aa(lp239
g192
ag26
(g185
S'\x00\x00\x00\x00\x00\x00\x00\x00'
p240
tp241
Rp242
aa(lp243
g197
ag26
(g185
S'\x90\x01\x00\x00\x00\x00\x00\x00'
p244
tp245
Rp246
aa(lp247
g202
ag203
aatp248
Rp249
ag53
((lp250
(lp251
g179
aVfrogs/ab2.jpg
p252
aa(lp253
g182
ag26
(g185
S'\x00\x00\x00\x00\x00\x00\x00\x00'
p254
tp255
Rp256
aa(lp257
g192
ag26
(g185
S'\x00\x00\x00\x00\x00\x00\x00\x00'
p258
tp259
Rp260
aa(lp261
g197
ag26
(g185
S'\x90\x01\x00\x00\x00\x00\x00\x00'
p262
tp263
Rp264
aa(lp265
g202
ag203
aatp266
Rp267
ag53
((lp268
(lp269
g179
aVfrogs/ab3.jpg
p270
aa(lp271
g182
ag26
(g185
S'\x00\x00\x00\x00\x00\x00\x00\x00'
p272
tp273
Rp274
aa(lp275
g192
ag26
(g185
S'\x00\x00\x00\x00\x00\x00\x00\x00'
p276
tp277
Rp278
aa(lp279
g197
ag26
(g185
S'\x90\x01\x00\x00\x00\x00\x00\x00'
p280
tp281
Rp282
aa(lp283
g202
ag203
aatp284
Rp285
ag53
((lp286
(lp287
g179
aVfrogs/ab4.jpg
p288
aa(lp289
g182
ag26
(g185
S'\x00\x00\x00\x00\x00\x00\x00\x00'
p290
tp291
Rp292
aa(lp293
g192
ag26
(g185
S'\x00\x00\x00\x00\x00\x00\x00\x00'
p294
tp295
Rp296
aa(lp297
g197
ag26
(g185
S'\x90\x01\x00\x00\x00\x00\x00\x00'
p298
tp299
Rp300
aa(lp301
g202
ag203
aatp302
Rp303
ag53
((lp304
(lp305
g179
aVfrogs/ab5.jpg
p306
aa(lp307
g182
ag26
(g185
S'\x00\x00\x00\x00\x00\x00\x00\x00'
p308
tp309
Rp310
aa(lp311
g192
ag26
(g185
S'\x00\x00\x00\x00\x00\x00\x00\x00'
p312
tp313
Rp314
aa(lp315
g197
ag26
(g185
S'\x90\x01\x00\x00\x00\x00\x00\x00'
p316
tp317
Rp318
aa(lp319
g202
ag203
aatp320
Rp321
ag53
((lp322
(lp323
g179
aVfrogs/ab6.jpg
p324
aa(lp325
g182
ag26
(g185
S'\x00\x00\x00\x00\x00\x00\x00\x00'
p326
tp327
Rp328
aa(lp329
g192
ag26
(g185
S'\x00\x00\x00\x00\x00\x00\x00\x00'
p330
tp331
Rp332
aa(lp333
g197
ag26
(g185
S'\x90\x01\x00\x00\x00\x00\x00\x00'
p334
tp335
Rp336
aa(lp337
g202
ag203
aatp338
Rp339
ag53
((lp340
(lp341
g179
aVfrogs/ab7.jpg
p342
aa(lp343
g182
ag26
(g185
S'\x00\x00\x00\x00\x00\x00\x00\x00'
p344
tp345
Rp346
aa(lp347
g192
ag26
(g185
S'\x00\x00\x00\x00\x00\x00\x00\x00'
p348
tp349
Rp350
aa(lp351
g197
ag26
(g185
S'\x90\x01\x00\x00\x00\x00\x00\x00'
p352
tp353
Rp354
aa(lp355
g202
ag203
aatp356
Rp357
ag53
((lp358
(lp359
g179
aVfrogs/ab8.jpg
p360
aa(lp361
g182
ag26
(g185
S'\x00\x00\x00\x00\x00\x00\x00\x00'
p362
tp363
Rp364
aa(lp365
g192
ag26
(g185
S'\x00\x00\x00\x00\x00\x00\x00\x00'
p366
tp367
Rp368
aa(lp369
g197
ag26
(g185
S'\x90\x01\x00\x00\x00\x00\x00\x00'
p370
tp371
Rp372
aa(lp373
g202
ag203
aatp374
Rp375
ag53
((lp376
(lp377
g179
aVfrogs/ab9.jpg
p378
aa(lp379
g182
ag26
(g185
S'\x00\x00\x00\x00\x00\x00\x00\x00'
p380
tp381
Rp382
aa(lp383
g192
ag26
(g185
S'\x00\x00\x00\x00\x00\x00\x00\x00'
p384
tp385
Rp386
aa(lp387
g197
ag26
(g185
S'\x90\x01\x00\x00\x00\x00\x00\x00'
p388
tp389
Rp390
aa(lp391
g202
ag203
aatp392
Rp393
ag53
((lp394
(lp395
g179
aVfrogs/ab10.jpg
p396
aa(lp397
g182
ag26
(g185
S'\x00\x00\x00\x00\x00\x00\x00\x00'
p398
tp399
Rp400
aa(lp401
g192
ag26
(g185
S'\x00\x00\x00\x00\x00\x00\x00\x00'
p402
tp403
Rp404
aa(lp405
g197
ag26
(g185
S'\x90\x01\x00\x00\x00\x00\x00\x00'
p406
tp407
Rp408
aa(lp409
g202
ag203
aatp410
Rp411
ag53
((lp412
(lp413
g179
aVfrogs/ab11.jpg
p414
aa(lp415
g182
ag26
(g185
S'\x00\x00\x00\x00\x00\x00\x00\x00'
p416
tp417
Rp418
aa(lp419
g192
ag26
(g185
S'\x00\x00\x00\x00\x00\x00\x00\x00'
p420
tp421
Rp422
aa(lp423
g197
ag26
(g185
S'\x90\x01\x00\x00\x00\x00\x00\x00'
p424
tp425
Rp426
aa(lp427
g202
ag203
aatp428
Rp429
ag53
((lp430
(lp431
g179
aVfrogs/ab12.jpg
p432
aa(lp433
g182
ag26
(g185
S'\x00\x00\x00\x00\x00\x00\x00\x00'
p434
tp435
Rp436
aa(lp437
g192
ag26
(g185
S'\x00\x00\x00\x00\x00\x00\x00\x00'
p438
tp439
Rp440
aa(lp441
g197
ag26
(g185
S'\x90\x01\x00\x00\x00\x00\x00\x00'
p442
tp443
Rp444
aa(lp445
g202
ag203
aatp446
Rp447
ag53
((lp448
(lp449
g179
aVfrogs/ab13.jpg
p450
aa(lp451
g182
ag26
(g185
S'\x00\x00\x00\x00\x00\x00\x00\x00'
p452
tp453
Rp454
aa(lp455
g192
ag26
(g185
S'\x00\x00\x00\x00\x00\x00\x00\x00'
p456
tp457
Rp458
aa(lp459
g197
ag26
(g185
S'\x90\x01\x00\x00\x00\x00\x00\x00'
p460
tp461
Rp462
aa(lp463
g202
ag203
aatp464
Rp465
ag53
((lp466
(lp467
g179
aVfrogs/ab14.jpg
p468
aa(lp469
g182
ag26
(g185
S'\x00\x00\x00\x00\x00\x00\x00\x00'
p470
tp471
Rp472
aa(lp473
g192
ag26
(g185
S'\x00\x00\x00\x00\x00\x00\x00\x00'
p474
tp475
Rp476
aa(lp477
g197
ag26
(g185
S'\x90\x01\x00\x00\x00\x00\x00\x00'
p478
tp479
Rp480
aa(lp481
g202
ag203
aatp482
Rp483
ag53
((lp484
(lp485
g179
aVfrogs/ab15.jpg
p486
aa(lp487
g182
ag26
(g185
S'\x00\x00\x00\x00\x00\x00\x00\x00'
p488
tp489
Rp490
aa(lp491
g192
ag26
(g185
S'\x00\x00\x00\x00\x00\x00\x00\x00'
p492
tp493
Rp494
aa(lp495
g197
ag26
(g185
S'\x90\x01\x00\x00\x00\x00\x00\x00'
p496
tp497
Rp498
aa(lp499
g202
ag203
aatp500
Rp501
ag53
((lp502
(lp503
g179
aVfrogs/ab16.jpg
p504
aa(lp505
g182
ag26
(g185
S'\x00\x00\x00\x00\x00\x00\x00\x00'
p506
tp507
Rp508
aa(lp509
g192
ag26
(g185
S'\x00\x00\x00\x00\x00\x00\x00\x00'
p510
tp511
Rp512
aa(lp513
g197
ag26
(g185
S'\x90\x01\x00\x00\x00\x00\x00\x00'
p514
tp515
Rp516
aa(lp517
g202
ag203
aatp518
Rp519
ag53
((lp520
(lp521
g179
aVfrogs/ab17.jpg
p522
aa(lp523
g182
ag26
(g185
S'\x00\x00\x00\x00\x00\x00\x00\x00'
p524
tp525
Rp526
aa(lp527
g192
ag26
(g185
S'\x00\x00\x00\x00\x00\x00\x00\x00'
p528
tp529
Rp530
aa(lp531
g197
ag26
(g185
S'\x90\x01\x00\x00\x00\x00\x00\x00'
p532
tp533
Rp534
aa(lp535
g202
ag203
aatp536
Rp537
ag53
((lp538
(lp539
g179
aVfrogs/ab18.jpg
p540
aa(lp541
g182
ag26
(g185
S'\x00\x00\x00\x00\x00\x00\x00\x00'
p542
tp543
Rp544
aa(lp545
g192
ag26
(g185
S'\x00\x00\x00\x00\x00\x00\x00\x00'
p546
tp547
Rp548
aa(lp549
g197
ag26
(g185
S'\x90\x01\x00\x00\x00\x00\x00\x00'
p550
tp551
Rp552
aa(lp553
g202
ag203
aatp554
Rp555
ag53
((lp556
(lp557
g179
aVfrogs/ab19.jpg
p558
aa(lp559
g182
ag26
(g185
S'\x00\x00\x00\x00\x00\x00\x00\x00'
p560
tp561
Rp562
aa(lp563
g192
ag26
(g185
S'\x00\x00\x00\x00\x00\x00\x00\x00'
p564
tp565
Rp566
aa(lp567
g197
ag26
(g185
S'\x90\x01\x00\x00\x00\x00\x00\x00'
p568
tp569
Rp570
aa(lp571
g202
ag203
aatp572
Rp573
ag53
((lp574
(lp575
g179
aVfrogs/ab20.jpg
p576
aa(lp577
g182
ag26
(g185
S'\x00\x00\x00\x00\x00\x00\x00\x00'
p578
tp579
Rp580
aa(lp581
g192
ag26
(g185
S'\x00\x00\x00\x00\x00\x00\x00\x00'
p582
tp583
Rp584
aa(lp585
g197
ag26
(g185
S'\x90\x01\x00\x00\x00\x00\x00\x00'
p586
tp587
Rp588
aa(lp589
g202
ag203
aatp590
Rp591
ag53
((lp592
(lp593
g179
aVfrogs/ab21.jpg
p594
aa(lp595
g182
ag26
(g185
S'\x00\x00\x00\x00\x00\x00\x00\x00'
p596
tp597
Rp598
aa(lp599
g192
ag26
(g185
S'\x00\x00\x00\x00\x00\x00\x00\x00'
p600
tp601
Rp602
aa(lp603
g197
ag26
(g185
S'\x90\x01\x00\x00\x00\x00\x00\x00'
p604
tp605
Rp606
aa(lp607
g202
ag203
aatp608
Rp609
ag53
((lp610
(lp611
g179
aVfrogs/ab22.jpg
p612
aa(lp613
g182
ag26
(g185
S'\x00\x00\x00\x00\x00\x00\x00\x00'
p614
tp615
Rp616
aa(lp617
g192
ag26
(g185
S'\x00\x00\x00\x00\x00\x00\x00\x00'
p618
tp619
Rp620
aa(lp621
g197
ag26
(g185
S'\x90\x01\x00\x00\x00\x00\x00\x00'
p622
tp623
Rp624
aa(lp625
g202
ag203
aatp626
Rp627
ag53
((lp628
(lp629
g179
aVfrogs/ab23.jpg
p630
aa(lp631
g182
ag26
(g185
S'\x00\x00\x00\x00\x00\x00\x00\x00'
p632
tp633
Rp634
aa(lp635
g192
ag26
(g185
S'\x00\x00\x00\x00\x00\x00\x00\x00'
p636
tp637
Rp638
aa(lp639
g197
ag26
(g185
S'\x90\x01\x00\x00\x00\x00\x00\x00'
p640
tp641
Rp642
aa(lp643
g202
ag203
aatp644
Rp645
ag53
((lp646
(lp647
g179
aVfrogs/ab24.jpg
p648
aa(lp649
g182
ag26
(g185
S'\x00\x00\x00\x00\x00\x00\x00\x00'
p650
tp651
Rp652
aa(lp653
g192
ag26
(g185
S'\x00\x00\x00\x00\x00\x00\x00\x00'
p654
tp655
Rp656
aa(lp657
g197
ag26
(g185
S'\x90\x01\x00\x00\x00\x00\x00\x00'
p658
tp659
Rp660
aa(lp661
g202
ag203
aatp662
Rp663
ag53
((lp664
(lp665
g179
aVfrogs/ab25.jpg
p666
aa(lp667
g182
ag26
(g185
S'\x00\x00\x00\x00\x00\x00\x00\x00'
p668
tp669
Rp670
aa(lp671
g192
ag26
(g185
S'\x00\x00\x00\x00\x00\x00\x00\x00'
p672
tp673
Rp674
aa(lp675
g197
ag26
(g185
S'\x90\x01\x00\x00\x00\x00\x00\x00'
p676
tp677
Rp678
aa(lp679
g202
ag203
aatp680
Rp681
ag53
((lp682
(lp683
g179
aVfrogs/ab26.jpg
p684
aa(lp685
g182
ag26
(g185
S'\x00\x00\x00\x00\x00\x00\x00\x00'
p686
tp687
Rp688
aa(lp689
g192
ag26
(g185
S'\x00\x00\x00\x00\x00\x00\x00\x00'
p690
tp691
Rp692
aa(lp693
g197
ag26
(g185
S'\x90\x01\x00\x00\x00\x00\x00\x00'
p694
tp695
Rp696
aa(lp697
g202
ag203
aatp698
Rp699
ag53
((lp700
(lp701
g179
aVfrogs/ab27.jpg
p702
aa(lp703
g182
ag26
(g185
S'\x00\x00\x00\x00\x00\x00\x00\x00'
p704
tp705
Rp706
aa(lp707
g192
ag26
(g185
S'\x00\x00\x00\x00\x00\x00\x00\x00'
p708
tp709
Rp710
aa(lp711
g197
ag26
(g185
S'\x90\x01\x00\x00\x00\x00\x00\x00'
p712
tp713
Rp714
aa(lp715
g202
ag203
aatp716
Rp717
ag53
((lp718
(lp719
g179
aVfrogs/ab28.jpg
p720
aa(lp721
g182
ag26
(g185
S'\x00\x00\x00\x00\x00\x00\x00\x00'
p722
tp723
Rp724
aa(lp725
g192
ag26
(g185
S'\x00\x00\x00\x00\x00\x00\x00\x00'
p726
tp727
Rp728
aa(lp729
g197
ag26
(g185
S'\x90\x01\x00\x00\x00\x00\x00\x00'
p730
tp731
Rp732
aa(lp733
g202
ag203
aatp734
Rp735
ag53
((lp736
(lp737
g179
aVfrogs/ab29.jpg
p738
aa(lp739
g182
ag26
(g185
S'\x00\x00\x00\x00\x00\x00\x00\x00'
p740
tp741
Rp742
aa(lp743
g192
ag26
(g185
S'\x00\x00\x00\x00\x00\x00\x00\x00'
p744
tp745
Rp746
aa(lp747
g197
ag26
(g185
S'\x90\x01\x00\x00\x00\x00\x00\x00'
p748
tp749
Rp750
aa(lp751
g202
ag203
aatp752
Rp753
ag53
((lp754
(lp755
g179
aVfrogs/ab30.jpg
p756
aa(lp757
g182
ag26
(g185
S'\x00\x00\x00\x00\x00\x00\x00\x00'
p758
tp759
Rp760
aa(lp761
g192
ag26
(g185
S'\x00\x00\x00\x00\x00\x00\x00\x00'
p762
tp763
Rp764
aa(lp765
g197
ag26
(g185
S'\x90\x01\x00\x00\x00\x00\x00\x00'
p766
tp767
Rp768
aa(lp769
g202
ag203
aatp770
Rp771
ag53
((lp772
(lp773
g179
aVfrogs/ab31.jpg
p774
aa(lp775
g182
ag26
(g185
S'\x00\x00\x00\x00\x00\x00\x00\x00'
p776
tp777
Rp778
aa(lp779
g192
ag26
(g185
S'\x00\x00\x00\x00\x00\x00\x00\x00'
p780
tp781
Rp782
aa(lp783
g197
ag26
(g185
S'\x90\x01\x00\x00\x00\x00\x00\x00'
p784
tp785
Rp786
aa(lp787
g202
ag203
aatp788
Rp789
ag53
((lp790
(lp791
g179
aVfrogs/ab32.jpg
p792
aa(lp793
g182
ag26
(g185
S'\x00\x00\x00\x00\x00\x00\x00\x00'
p794
tp795
Rp796
aa(lp797
g192
ag26
(g185
S'\x00\x00\x00\x00\x00\x00\x00\x00'
p798
tp799
Rp800
aa(lp801
g197
ag26
(g185
S'\x90\x01\x00\x00\x00\x00\x00\x00'
p802
tp803
Rp804
aa(lp805
g202
ag203
aatp806
Rp807
ag53
((lp808
(lp809
g179
aVfrogs/ab33.jpg
p810
aa(lp811
g182
ag26
(g185
S'\x00\x00\x00\x00\x00\x00\x00\x00'
p812
tp813
Rp814
aa(lp815
g192
ag26
(g185
S'\x00\x00\x00\x00\x00\x00\x00\x00'
p816
tp817
Rp818
aa(lp819
g197
ag26
(g185
S'\x90\x01\x00\x00\x00\x00\x00\x00'
p820
tp821
Rp822
aa(lp823
g202
ag203
aatp824
Rp825
ag53
((lp826
(lp827
g179
aVfrogs/ab34.jpg
p828
aa(lp829
g182
ag26
(g185
S'\x00\x00\x00\x00\x00\x00\x00\x00'
p830
tp831
Rp832
aa(lp833
g192
ag26
(g185
S'\x00\x00\x00\x00\x00\x00\x00\x00'
p834
tp835
Rp836
aa(lp837
g197
ag26
(g185
S'\x90\x01\x00\x00\x00\x00\x00\x00'
p838
tp839
Rp840
aa(lp841
g202
ag203
aatp842
Rp843
ag53
((lp844
(lp845
g179
aVfrogs/ab35.jpg
p846
aa(lp847
g182
ag26
(g185
S'\x00\x00\x00\x00\x00\x00\x00\x00'
p848
tp849
Rp850
aa(lp851
g192
ag26
(g185
S'\x00\x00\x00\x00\x00\x00\x00\x00'
p852
tp853
Rp854
aa(lp855
g197
ag26
(g185
S'\x90\x01\x00\x00\x00\x00\x00\x00'
p856
tp857
Rp858
aa(lp859
g202
ag203
aatp860
Rp861
ag53
((lp862
(lp863
g179
aVfrogs/ab36.jpg
p864
aa(lp865
g182
ag26
(g185
S'\x00\x00\x00\x00\x00\x00\x00\x00'
p866
tp867
Rp868
aa(lp869
g192
ag26
(g185
S'\x00\x00\x00\x00\x00\x00\x00\x00'
p870
tp871
Rp872
aa(lp873
g197
ag26
(g185
S'\x90\x01\x00\x00\x00\x00\x00\x00'
p874
tp875
Rp876
aa(lp877
g202
ag203
aatp878
Rp879
ag53
((lp880
(lp881
g179
aVfrogs/ab37.jpg
p882
aa(lp883
g182
ag26
(g185
S'\x00\x00\x00\x00\x00\x00\x00\x00'
p884
tp885
Rp886
aa(lp887
g192
ag26
(g185
S'\x00\x00\x00\x00\x00\x00\x00\x00'
p888
tp889
Rp890
aa(lp891
g197
ag26
(g185
S'\x90\x01\x00\x00\x00\x00\x00\x00'
p892
tp893
Rp894
aa(lp895
g202
ag203
aatp896
Rp897
ag53
((lp898
(lp899
g179
aVfrogs/ab38.jpg
p900
aa(lp901
g182
ag26
(g185
S'\x00\x00\x00\x00\x00\x00\x00\x00'
p902
tp903
Rp904
aa(lp905
g192
ag26
(g185
S'\x00\x00\x00\x00\x00\x00\x00\x00'
p906
tp907
Rp908
aa(lp909
g197
ag26
(g185
S'\x90\x01\x00\x00\x00\x00\x00\x00'
p910
tp911
Rp912
aa(lp913
g202
ag203
aatp914
Rp915
ag53
((lp916
(lp917
g179
aVfrogs/ab39.jpg
p918
aa(lp919
g182
ag26
(g185
S'\x00\x00\x00\x00\x00\x00\x00\x00'
p920
tp921
Rp922
aa(lp923
g192
ag26
(g185
S'\x00\x00\x00\x00\x00\x00\x00\x00'
p924
tp925
Rp926
aa(lp927
g197
ag26
(g185
S'\x90\x01\x00\x00\x00\x00\x00\x00'
p928
tp929
Rp930
aa(lp931
g202
ag203
aatp932
Rp933
ag205
ag53
((lp934
(lp935
g179
aVfrogs/ab41.jpg
p936
aa(lp937
g182
ag26
(g185
S'\x00\x00\x00\x00\x00\x00\x00\x00'
p938
tp939
Rp940
aa(lp941
g192
ag26
(g185
S'\x00\x00\x00\x00\x00\x00\x00\x00'
p942
tp943
Rp944
aa(lp945
g197
ag26
(g185
S'\x90\x01\x00\x00\x00\x00\x00\x00'
p946
tp947
Rp948
aa(lp949
g202
ag203
aatp950
Rp951
ag53
((lp952
(lp953
g179
aVfrogs/ab42.jpg
p954
aa(lp955
g182
ag26
(g185
S'\x00\x00\x00\x00\x00\x00\x00\x00'
p956
tp957
Rp958
aa(lp959
g192
ag26
(g185
S'\x00\x00\x00\x00\x00\x00\x00\x00'
p960
tp961
Rp962
aa(lp963
g197
ag26
(g185
S'\x90\x01\x00\x00\x00\x00\x00\x00'
p964
tp965
Rp966
aa(lp967
g202
ag203
aatp968
Rp969
ag53
((lp970
(lp971
g179
aVfrogs/ab43.jpg
p972
aa(lp973
g182
ag26
(g185
S'\x00\x00\x00\x00\x00\x00\x00\x00'
p974
tp975
Rp976
aa(lp977
g192
ag26
(g185
S'\x00\x00\x00\x00\x00\x00\x00\x00'
p978
tp979
Rp980
aa(lp981
g197
ag26
(g185
S'\x90\x01\x00\x00\x00\x00\x00\x00'
p982
tp983
Rp984
aa(lp985
g202
ag203
aatp986
Rp987
ag53
((lp988
(lp989
g179
aVfrogs/ab44.jpg
p990
aa(lp991
g182
ag26
(g185
S'\x00\x00\x00\x00\x00\x00\x00\x00'
p992
tp993
Rp994
aa(lp995
g192
ag26
(g185
S'\x00\x00\x00\x00\x00\x00\x00\x00'
p996
tp997
Rp998
aa(lp999
g197
ag26
(g185
S'\x90\x01\x00\x00\x00\x00\x00\x00'
p1000
tp1001
Rp1002
aa(lp1003
g202
ag203
aatp1004
Rp1005
ag53
((lp1006
(lp1007
g179
aVfrogs/ab45.jpg
p1008
aa(lp1009
g182
ag26
(g185
S'\x00\x00\x00\x00\x00\x00\x00\x00'
p1010
tp1011
Rp1012
aa(lp1013
g192
ag26
(g185
S'\x00\x00\x00\x00\x00\x00\x00\x00'
p1014
tp1015
Rp1016
aa(lp1017
g197
ag26
(g185
S'\x90\x01\x00\x00\x00\x00\x00\x00'
p1018
tp1019
Rp1020
aa(lp1021
g202
ag203
aatp1022
Rp1023
ag53
((lp1024
(lp1025
g179
aVfrogs/ab46.jpg
p1026
aa(lp1027
g182
ag26
(g185
S'\x00\x00\x00\x00\x00\x00\x00\x00'
p1028
tp1029
Rp1030
aa(lp1031
g192
ag26
(g185
S'\x00\x00\x00\x00\x00\x00\x00\x00'
p1032
tp1033
Rp1034
aa(lp1035
g197
ag26
(g185
S'\x90\x01\x00\x00\x00\x00\x00\x00'
p1036
tp1037
Rp1038
aa(lp1039
g202
ag203
aatp1040
Rp1041
ag53
((lp1042
(lp1043
g179
aVfrogs/ab47.jpg
p1044
aa(lp1045
g182
ag26
(g185
S'\x00\x00\x00\x00\x00\x00\x00\x00'
p1046
tp1047
Rp1048
aa(lp1049
g192
ag26
(g185
S'\x00\x00\x00\x00\x00\x00\x00\x00'
p1050
tp1051
Rp1052
aa(lp1053
g197
ag26
(g185
S'\x90\x01\x00\x00\x00\x00\x00\x00'
p1054
tp1055
Rp1056
aa(lp1057
g202
ag203
aatp1058
Rp1059
ag53
((lp1060
(lp1061
g179
aVfrogs/ab48.jpg
p1062
aa(lp1063
g182
ag26
(g185
S'\x00\x00\x00\x00\x00\x00\x00\x00'
p1064
tp1065
Rp1066
aa(lp1067
g192
ag26
(g185
S'\x00\x00\x00\x00\x00\x00\x00\x00'
p1068
tp1069
Rp1070
aa(lp1071
g197
ag26
(g185
S'\x90\x01\x00\x00\x00\x00\x00\x00'
p1072
tp1073
Rp1074
aa(lp1075
g202
ag203
aatp1076
Rp1077
ag53
((lp1078
(lp1079
g179
aVfrogs/ab49.jpg
p1080
aa(lp1081
g182
ag26
(g185
S'\x00\x00\x00\x00\x00\x00\x00\x00'
p1082
tp1083
Rp1084
aa(lp1085
g192
ag26
(g185
S'\x00\x00\x00\x00\x00\x00\x00\x00'
p1086
tp1087
Rp1088
aa(lp1089
g197
ag26
(g185
S'\x90\x01\x00\x00\x00\x00\x00\x00'
p1090
tp1091
Rp1092
aa(lp1093
g202
ag203
aatp1094
Rp1095
ag53
((lp1096
(lp1097
g179
aVfrogs/ab50.jpg
p1098
aa(lp1099
g182
ag26
(g185
S'\x00\x00\x00\x00\x00\x00\x00\x00'
p1100
tp1101
Rp1102
aa(lp1103
g192
ag26
(g185
S'\x00\x00\x00\x00\x00\x00\x00\x00'
p1104
tp1105
Rp1106
aa(lp1107
g197
ag26
(g185
S'\x90\x01\x00\x00\x00\x00\x00\x00'
p1108
tp1109
Rp1110
aa(lp1111
g202
ag203
aatp1112
Rp1113
ag53
((lp1114
(lp1115
g179
aVfrogs/ab51.jpg
p1116
aa(lp1117
g182
ag26
(g185
S'\x00\x00\x00\x00\x00\x00\x00\x00'
p1118
tp1119
Rp1120
aa(lp1121
g192
ag26
(g185
S'\x00\x00\x00\x00\x00\x00\x00\x00'
p1122
tp1123
Rp1124
aa(lp1125
g197
ag26
(g185
S'\x90\x01\x00\x00\x00\x00\x00\x00'
p1126
tp1127
Rp1128
aa(lp1129
g202
ag203
aatp1130
Rp1131
ag53
((lp1132
(lp1133
g179
aVfrogs/ab52.jpg
p1134
aa(lp1135
g182
ag26
(g185
S'\x00\x00\x00\x00\x00\x00\x00\x00'
p1136
tp1137
Rp1138
aa(lp1139
g192
ag26
(g185
S'\x00\x00\x00\x00\x00\x00\x00\x00'
p1140
tp1141
Rp1142
aa(lp1143
g197
ag26
(g185
S'\x90\x01\x00\x00\x00\x00\x00\x00'
p1144
tp1145
Rp1146
aa(lp1147
g202
ag203
aatp1148
Rp1149
ag53
((lp1150
(lp1151
g179
aVfrogs/ab53.jpg
p1152
aa(lp1153
g182
ag26
(g185
S'\x00\x00\x00\x00\x00\x00\x00\x00'
p1154
tp1155
Rp1156
aa(lp1157
g192
ag26
(g185
S'\x00\x00\x00\x00\x00\x00\x00\x00'
p1158
tp1159
Rp1160
aa(lp1161
g197
ag26
(g185
S'\x90\x01\x00\x00\x00\x00\x00\x00'
p1162
tp1163
Rp1164
aa(lp1165
g202
ag203
aatp1166
Rp1167
ag53
((lp1168
(lp1169
g179
aVfrogs/ab54.jpg
p1170
aa(lp1171
g182
ag26
(g185
S'\x00\x00\x00\x00\x00\x00\x00\x00'
p1172
tp1173
Rp1174
aa(lp1175
g192
ag26
(g185
S'\x00\x00\x00\x00\x00\x00\x00\x00'
p1176
tp1177
Rp1178
aa(lp1179
g197
ag26
(g185
S'\x90\x01\x00\x00\x00\x00\x00\x00'
p1180
tp1181
Rp1182
aa(lp1183
g202
ag203
aatp1184
Rp1185
ag53
((lp1186
(lp1187
g179
aVfrogs/ab55.jpg
p1188
aa(lp1189
g182
ag26
(g185
S'\x00\x00\x00\x00\x00\x00\x00\x00'
p1190
tp1191
Rp1192
aa(lp1193
g192
ag26
(g185
S'\x00\x00\x00\x00\x00\x00\x00\x00'
p1194
tp1195
Rp1196
aa(lp1197
g197
ag26
(g185
S'\x90\x01\x00\x00\x00\x00\x00\x00'
p1198
tp1199
Rp1200
aa(lp1201
g202
ag203
aatp1202
Rp1203
ag53
((lp1204
(lp1205
g179
aVfrogs/ab56.jpg
p1206
aa(lp1207
g182
ag26
(g185
S'\x00\x00\x00\x00\x00\x00\x00\x00'
p1208
tp1209
Rp1210
aa(lp1211
g192
ag26
(g185
S'\x00\x00\x00\x00\x00\x00\x00\x00'
p1212
tp1213
Rp1214
aa(lp1215
g197
ag26
(g185
S'\x90\x01\x00\x00\x00\x00\x00\x00'
p1216
tp1217
Rp1218
aa(lp1219
g202
ag203
aatp1220
Rp1221
ag53
((lp1222
(lp1223
g179
aVfrogs/ab57.jpg
p1224
aa(lp1225
g182
ag26
(g185
S'\x00\x00\x00\x00\x00\x00\x00\x00'
p1226
tp1227
Rp1228
aa(lp1229
g192
ag26
(g185
S'\x00\x00\x00\x00\x00\x00\x00\x00'
p1230
tp1231
Rp1232
aa(lp1233
g197
ag26
(g185
S'\x90\x01\x00\x00\x00\x00\x00\x00'
p1234
tp1235
Rp1236
aa(lp1237
g202
ag203
aatp1238
Rp1239
ag53
((lp1240
(lp1241
g179
aVfrogs/ab58.jpg
p1242
aa(lp1243
g182
ag26
(g185
S'\x00\x00\x00\x00\x00\x00\x00\x00'
p1244
tp1245
Rp1246
aa(lp1247
g192
ag26
(g185
S'\x00\x00\x00\x00\x00\x00\x00\x00'
p1248
tp1249
Rp1250
aa(lp1251
g197
ag26
(g185
S'\x90\x01\x00\x00\x00\x00\x00\x00'
p1252
tp1253
Rp1254
aa(lp1255
g202
ag203
aatp1256
Rp1257
ag53
((lp1258
(lp1259
g179
aVfrogs/ab60.jpg
p1260
aa(lp1261
g182
ag26
(g185
S'\x00\x00\x00\x00\x00\x00\x00\x00'
p1262
tp1263
Rp1264
aa(lp1265
g192
ag26
(g185
S'\x00\x00\x00\x00\x00\x00\x00\x00'
p1266
tp1267
Rp1268
aa(lp1269
g197
ag26
(g185
S'\x90\x01\x00\x00\x00\x00\x00\x00'
p1270
tp1271
Rp1272
aa(lp1273
g202
ag203
aatp1274
Rp1275
ag53
((lp1276
(lp1277
g179
aVfrogs/ab61.jpg
p1278
aa(lp1279
g182
ag26
(g185
S'\x00\x00\x00\x00\x00\x00\x00\x00'
p1280
tp1281
Rp1282
aa(lp1283
g192
ag26
(g185
S'\x00\x00\x00\x00\x00\x00\x00\x00'
p1284
tp1285
Rp1286
aa(lp1287
g197
ag26
(g185
S'\x90\x01\x00\x00\x00\x00\x00\x00'
p1288
tp1289
Rp1290
aa(lp1291
g202
ag203
aatp1292
Rp1293
ag53
((lp1294
(lp1295
g179
aVfrogs/ab62.jpg
p1296
aa(lp1297
g182
ag26
(g185
S'\x00\x00\x00\x00\x00\x00\x00\x00'
p1298
tp1299
Rp1300
aa(lp1301
g192
ag26
(g185
S'\x00\x00\x00\x00\x00\x00\x00\x00'
p1302
tp1303
Rp1304
aa(lp1305
g197
ag26
(g185
S'\x90\x01\x00\x00\x00\x00\x00\x00'
p1306
tp1307
Rp1308
aa(lp1309
g202
ag203
aatp1310
Rp1311
ag53
((lp1312
(lp1313
g179
aVfrogs/ab63.jpg
p1314
aa(lp1315
g182
ag26
(g185
S'\x00\x00\x00\x00\x00\x00\x00\x00'
p1316
tp1317
Rp1318
aa(lp1319
g192
ag26
(g185
S'\x00\x00\x00\x00\x00\x00\x00\x00'
p1320
tp1321
Rp1322
aa(lp1323
g197
ag26
(g185
S'\x90\x01\x00\x00\x00\x00\x00\x00'
p1324
tp1325
Rp1326
aa(lp1327
g202
ag203
aatp1328
Rp1329
ag53
((lp1330
(lp1331
g179
aVfrogs/ab64.jpg
p1332
aa(lp1333
g182
ag26
(g185
S'\x00\x00\x00\x00\x00\x00\x00\x00'
p1334
tp1335
Rp1336
aa(lp1337
g192
ag26
(g185
S'\x00\x00\x00\x00\x00\x00\x00\x00'
p1338
tp1339
Rp1340
aa(lp1341
g197
ag26
(g185
S'\x90\x01\x00\x00\x00\x00\x00\x00'
p1342
tp1343
Rp1344
aa(lp1345
g202
ag203
aatp1346
Rp1347
ag53
((lp1348
(lp1349
g179
aVfrogs/ab65.jpg
p1350
aa(lp1351
g182
ag26
(g185
S'\x00\x00\x00\x00\x00\x00\x00\x00'
p1352
tp1353
Rp1354
aa(lp1355
g192
ag26
(g185
S'\x00\x00\x00\x00\x00\x00\x00\x00'
p1356
tp1357
Rp1358
aa(lp1359
g197
ag26
(g185
S'\x90\x01\x00\x00\x00\x00\x00\x00'
p1360
tp1361
Rp1362
aa(lp1363
g202
ag203
aatp1364
Rp1365
ag53
((lp1366
(lp1367
g179
aVfrogs/ab66.jpg
p1368
aa(lp1369
g182
ag26
(g185
S'\x00\x00\x00\x00\x00\x00\x00\x00'
p1370
tp1371
Rp1372
aa(lp1373
g192
ag26
(g185
S'\x00\x00\x00\x00\x00\x00\x00\x00'
p1374
tp1375
Rp1376
aa(lp1377
g197
ag26
(g185
S'\x90\x01\x00\x00\x00\x00\x00\x00'
p1378
tp1379
Rp1380
aa(lp1381
g202
ag203
aatp1382
Rp1383
ag53
((lp1384
(lp1385
g179
aVfrogs/ab67.jpg
p1386
aa(lp1387
g182
ag26
(g185
S'\x00\x00\x00\x00\x00\x00\x00\x00'
p1388
tp1389
Rp1390
aa(lp1391
g192
ag26
(g185
S'\x00\x00\x00\x00\x00\x00\x00\x00'
p1392
tp1393
Rp1394
aa(lp1395
g197
ag26
(g185
S'\x90\x01\x00\x00\x00\x00\x00\x00'
p1396
tp1397
Rp1398
aa(lp1399
g202
ag203
aatp1400
Rp1401
ag53
((lp1402
(lp1403
g179
aVfrogs/ab68.jpg
p1404
aa(lp1405
g182
ag26
(g185
S'\x00\x00\x00\x00\x00\x00\x00\x00'
p1406
tp1407
Rp1408
aa(lp1409
g192
ag26
(g185
S'\x00\x00\x00\x00\x00\x00\x00\x00'
p1410
tp1411
Rp1412
aa(lp1413
g197
ag26
(g185
S'\x90\x01\x00\x00\x00\x00\x00\x00'
p1414
tp1415
Rp1416
aa(lp1417
g202
ag203
aatp1418
Rp1419
ag53
((lp1420
(lp1421
g179
aVfrogs/ab69.jpg
p1422
aa(lp1423
g182
ag26
(g185
S'\x00\x00\x00\x00\x00\x00\x00\x00'
p1424
tp1425
Rp1426
aa(lp1427
g192
ag26
(g185
S'\x00\x00\x00\x00\x00\x00\x00\x00'
p1428
tp1429
Rp1430
aa(lp1431
g197
ag26
(g185
S'\x90\x01\x00\x00\x00\x00\x00\x00'
p1432
tp1433
Rp1434
aa(lp1435
g202
ag203
aatp1436
Rp1437
ag53
((lp1438
(lp1439
g179
aVfrogs/ab70.jpg
p1440
aa(lp1441
g182
ag26
(g185
S'\x00\x00\x00\x00\x00\x00\x00\x00'
p1442
tp1443
Rp1444
aa(lp1445
g192
ag26
(g185
S'\x00\x00\x00\x00\x00\x00\x00\x00'
p1446
tp1447
Rp1448
aa(lp1449
g197
ag26
(g185
S'\x90\x01\x00\x00\x00\x00\x00\x00'
p1450
tp1451
Rp1452
aa(lp1453
g202
ag203
aatp1454
Rp1455
ag53
((lp1456
(lp1457
g179
aVfrogs/ab71.jpg
p1458
aa(lp1459
g182
ag26
(g185
S'\x00\x00\x00\x00\x00\x00\x00\x00'
p1460
tp1461
Rp1462
aa(lp1463
g192
ag26
(g185
S'\x00\x00\x00\x00\x00\x00\x00\x00'
p1464
tp1465
Rp1466
aa(lp1467
g197
ag26
(g185
S'\x90\x01\x00\x00\x00\x00\x00\x00'
p1468
tp1469
Rp1470
aa(lp1471
g202
ag203
aatp1472
Rp1473
ag53
((lp1474
(lp1475
g179
aVfrogs/ab72.jpg
p1476
aa(lp1477
g182
ag26
(g185
S'\x00\x00\x00\x00\x00\x00\x00\x00'
p1478
tp1479
Rp1480
aa(lp1481
g192
ag26
(g185
S'\x00\x00\x00\x00\x00\x00\x00\x00'
p1482
tp1483
Rp1484
aa(lp1485
g197
ag26
(g185
S'\x90\x01\x00\x00\x00\x00\x00\x00'
p1486
tp1487
Rp1488
aa(lp1489
g202
ag203
aatp1490
Rp1491
ag53
((lp1492
(lp1493
g179
aVfrogs/ab73.jpg
p1494
aa(lp1495
g182
ag26
(g185
S'\x00\x00\x00\x00\x00\x00\x00\x00'
p1496
tp1497
Rp1498
aa(lp1499
g192
ag26
(g185
S'\x00\x00\x00\x00\x00\x00\x00\x00'
p1500
tp1501
Rp1502
aa(lp1503
g197
ag26
(g185
S'\x90\x01\x00\x00\x00\x00\x00\x00'
p1504
tp1505
Rp1506
aa(lp1507
g202
ag203
aatp1508
Rp1509
ag53
((lp1510
(lp1511
g179
aVfrogs/ab74.jpg
p1512
aa(lp1513
g182
ag26
(g185
S'\x00\x00\x00\x00\x00\x00\x00\x00'
p1514
tp1515
Rp1516
aa(lp1517
g192
ag26
(g185
S'\x00\x00\x00\x00\x00\x00\x00\x00'
p1518
tp1519
Rp1520
aa(lp1521
g197
ag26
(g185
S'\x90\x01\x00\x00\x00\x00\x00\x00'
p1522
tp1523
Rp1524
aa(lp1525
g202
ag203
aatp1526
Rp1527
ag53
((lp1528
(lp1529
g179
aVfrogs/ab75.jpg
p1530
aa(lp1531
g182
ag26
(g185
S'\x00\x00\x00\x00\x00\x00\x00\x00'
p1532
tp1533
Rp1534
aa(lp1535
g192
ag26
(g185
S'\x00\x00\x00\x00\x00\x00\x00\x00'
p1536
tp1537
Rp1538
aa(lp1539
g197
ag26
(g185
S'\x90\x01\x00\x00\x00\x00\x00\x00'
p1540
tp1541
Rp1542
aa(lp1543
g202
ag203
aatp1544
Rp1545
ag53
((lp1546
(lp1547
g179
aVfrogs/ab76.jpg
p1548
aa(lp1549
g182
ag26
(g185
S'\x00\x00\x00\x00\x00\x00\x00\x00'
p1550
tp1551
Rp1552
aa(lp1553
g192
ag26
(g185
S'\x00\x00\x00\x00\x00\x00\x00\x00'
p1554
tp1555
Rp1556
aa(lp1557
g197
ag26
(g185
S'\x90\x01\x00\x00\x00\x00\x00\x00'
p1558
tp1559
Rp1560
aa(lp1561
g202
ag203
aatp1562
Rp1563
ag53
((lp1564
(lp1565
g179
aVfrogs/ab77.jpg
p1566
aa(lp1567
g182
ag26
(g185
S'\x00\x00\x00\x00\x00\x00\x00\x00'
p1568
tp1569
Rp1570
aa(lp1571
g192
ag26
(g185
S'\x00\x00\x00\x00\x00\x00\x00\x00'
p1572
tp1573
Rp1574
aa(lp1575
g197
ag26
(g185
S'\x90\x01\x00\x00\x00\x00\x00\x00'
p1576
tp1577
Rp1578
aa(lp1579
g202
ag203
aatp1580
Rp1581
ag53
((lp1582
(lp1583
g179
aVfrogs/ab78.jpg
p1584
aa(lp1585
g182
ag26
(g185
S'\x00\x00\x00\x00\x00\x00\x00\x00'
p1586
tp1587
Rp1588
aa(lp1589
g192
ag26
(g185
S'\x00\x00\x00\x00\x00\x00\x00\x00'
p1590
tp1591
Rp1592
aa(lp1593
g197
ag26
(g185
S'\x90\x01\x00\x00\x00\x00\x00\x00'
p1594
tp1595
Rp1596
aa(lp1597
g202
ag203
aatp1598
Rp1599
ag53
((lp1600
(lp1601
g179
aVfrogs/ab79.jpg
p1602
aa(lp1603
g182
ag26
(g185
S'\x00\x00\x00\x00\x00\x00\x00\x00'
p1604
tp1605
Rp1606
aa(lp1607
g192
ag26
(g185
S'\x00\x00\x00\x00\x00\x00\x00\x00'
p1608
tp1609
Rp1610
aa(lp1611
g197
ag26
(g185
S'\x90\x01\x00\x00\x00\x00\x00\x00'
p1612
tp1613
Rp1614
aa(lp1615
g202
ag203
aatp1616
Rp1617
ag53
((lp1618
(lp1619
g179
aVfrogs/ab80.jpg
p1620
aa(lp1621
g182
ag26
(g185
S'\x00\x00\x00\x00\x00\x00\x00\x00'
p1622
tp1623
Rp1624
aa(lp1625
g192
ag26
(g185
S'\x00\x00\x00\x00\x00\x00\x00\x00'
p1626
tp1627
Rp1628
aa(lp1629
g197
ag26
(g185
S'\x90\x01\x00\x00\x00\x00\x00\x00'
p1630
tp1631
Rp1632
aa(lp1633
g202
ag203
aatp1634
Rp1635
ag53
((lp1636
(lp1637
g179
aVfrogs/ab81.jpg
p1638
aa(lp1639
g182
ag26
(g185
S'\x00\x00\x00\x00\x00\x00\x00\x00'
p1640
tp1641
Rp1642
aa(lp1643
g192
ag26
(g185
S'\x00\x00\x00\x00\x00\x00\x00\x00'
p1644
tp1645
Rp1646
aa(lp1647
g197
ag26
(g185
S'\x90\x01\x00\x00\x00\x00\x00\x00'
p1648
tp1649
Rp1650
aa(lp1651
g202
ag203
aatp1652
Rp1653
ag53
((lp1654
(lp1655
g179
aVlogos/1.jpg
p1656
aa(lp1657
g182
ag26
(g185
S'\x00\x00\x00\x00\x00\x00\x00\x00'
p1658
tp1659
Rp1660
aa(lp1661
g192
ag26
(g185
S'\x00\x00\x00\x00\x00\x00\x00\x00'
p1662
tp1663
Rp1664
aa(lp1665
g197
ag26
(g185
S'\x90\x01\x00\x00\x00\x00\x00\x00'
p1666
tp1667
Rp1668
aa(lp1669
g202
aVa
p1670
aatp1671
Rp1672
ag53
((lp1673
(lp1674
g179
ag1656
aa(lp1675
g182
ag26
(g185
S'\x00\x00\x00\x00\x00\x00\x00\x00'
p1676
tp1677
Rp1678
aa(lp1679
g192
ag26
(g185
S'\x00\x00\x00\x00\x00\x00\x00\x00'
p1680
tp1681
Rp1682
aa(lp1683
g197
ag26
(g185
S'\x90\x01\x00\x00\x00\x00\x00\x00'
p1684
tp1685
Rp1686
aa(lp1687
g202
ag1670
aatp1688
Rp1689
ag53
((lp1690
(lp1691
g179
ag1656
aa(lp1692
g182
ag26
(g185
S'\x00\x00\x00\x00\x00\x00\x00\x00'
p1693
tp1694
Rp1695
aa(lp1696
g192
ag26
(g185
S'\x00\x00\x00\x00\x00\x00\x00\x00'
p1697
tp1698
Rp1699
aa(lp1700
g197
ag26
(g185
S'\x90\x01\x00\x00\x00\x00\x00\x00'
p1701
tp1702
Rp1703
aa(lp1704
g202
ag1670
aatp1705
Rp1706
ag53
((lp1707
(lp1708
g179
ag1656
aa(lp1709
g182
ag26
(g185
S'\x00\x00\x00\x00\x00\x00\x00\x00'
p1710
tp1711
Rp1712
aa(lp1713
g192
ag26
(g185
S'\x00\x00\x00\x00\x00\x00\x00\x00'
p1714
tp1715
Rp1716
aa(lp1717
g197
ag26
(g185
S'\x90\x01\x00\x00\x00\x00\x00\x00'
p1718
tp1719
Rp1720
aa(lp1721
g202
ag1670
aatp1722
Rp1723
ag53
((lp1724
(lp1725
g179
ag1656
aa(lp1726
g182
ag26
(g185
S'\x00\x00\x00\x00\x00\x00\x00\x00'
p1727
tp1728
Rp1729
aa(lp1730
g192
ag26
(g185
S'\x00\x00\x00\x00\x00\x00\x00\x00'
p1731
tp1732
Rp1733
aa(lp1734
g197
ag26
(g185
S'\x90\x01\x00\x00\x00\x00\x00\x00'
p1735
tp1736
Rp1737
aa(lp1738
g202
ag1670
aatp1739
Rp1740
ag53
((lp1741
(lp1742
g179
ag1656
aa(lp1743
g182
ag26
(g185
S'\x00\x00\x00\x00\x00\x00\x00\x00'
p1744
tp1745
Rp1746
aa(lp1747
g192
ag26
(g185
S'\x00\x00\x00\x00\x00\x00\x00\x00'
p1748
tp1749
Rp1750
aa(lp1751
g197
ag26
(g185
S'\x90\x01\x00\x00\x00\x00\x00\x00'
p1752
tp1753
Rp1754
aa(lp1755
g202
ag1670
aatp1756
Rp1757
ag53
((lp1758
(lp1759
g179
ag1656
aa(lp1760
g182
ag26
(g185
S'\x00\x00\x00\x00\x00\x00\x00\x00'
p1761
tp1762
Rp1763
aa(lp1764
g192
ag26
(g185
S'\x00\x00\x00\x00\x00\x00\x00\x00'
p1765
tp1766
Rp1767
aa(lp1768
g197
ag26
(g185
S'\x90\x01\x00\x00\x00\x00\x00\x00'
p1769
tp1770
Rp1771
aa(lp1772
g202
ag1670
aatp1773
Rp1774
ag53
((lp1775
(lp1776
g179
ag1656
aa(lp1777
g182
ag26
(g185
S'\x00\x00\x00\x00\x00\x00\x00\x00'
p1778
tp1779
Rp1780
aa(lp1781
g192
ag26
(g185
S'\x00\x00\x00\x00\x00\x00\x00\x00'
p1782
tp1783
Rp1784
aa(lp1785
g197
ag26
(g185
S'\x90\x01\x00\x00\x00\x00\x00\x00'
p1786
tp1787
Rp1788
aa(lp1789
g202
ag1670
aatp1790
Rp1791
ag53
((lp1792
(lp1793
g179
ag1656
aa(lp1794
g182
ag26
(g185
S'\x00\x00\x00\x00\x00\x00\x00\x00'
p1795
tp1796
Rp1797
aa(lp1798
g192
ag26
(g185
S'\x00\x00\x00\x00\x00\x00\x00\x00'
p1799
tp1800
Rp1801
aa(lp1802
g197
ag26
(g185
S'\x90\x01\x00\x00\x00\x00\x00\x00'
p1803
tp1804
Rp1805
aa(lp1806
g202
ag1670
aatp1807
Rp1808
ag53
((lp1809
(lp1810
g179
ag1656
aa(lp1811
g182
ag26
(g185
S'\x00\x00\x00\x00\x00\x00\x00\x00'
p1812
tp1813
Rp1814
aa(lp1815
g192
ag26
(g185
S'\x00\x00\x00\x00\x00\x00\x00\x00'
p1816
tp1817
Rp1818
aa(lp1819
g197
ag26
(g185
S'\x90\x01\x00\x00\x00\x00\x00\x00'
p1820
tp1821
Rp1822
aa(lp1823
g202
ag1670
aatp1824
Rp1825
asg166
Nsg167
g26
(g135
S"'\x00\x00\x00"
p1826
tp1827
Rp1828
sg171
I0
sg172
I0
sg173
I90
sbasS'saveWideText'
p1829
I00
sS'thisEntry'
p1830
(dp1831
g15
g98
sg16
F2.424093390836788
ssS'version'
p1832
S''
p1833
sS'_paramNamesSoFar'
p1834
(lp1835
g56
ag59
aS'image1'
p1836
aS'x'
p1837
aS'y'
p1838
aS'size'
p1839
aS'answer'
p1840
asS'entries'
p1841
(lp1842
(dp1843
g19
(lp1844
F0.7174833382014185
asg18
I0
sg25
g35
sg17
(lp1845
S'l'
p1846
asg56
g154
sg1838
g26
(g185
S'\x00\x00\x00\x00\x00\x00\x00\x00'
p1847
tp1848
Rp1849
sg37
g38
sS'trials_2.thisIndex'
p1850
g26
(g135
S'\x02\x00\x00\x00'
p1851
tp1852
Rp1853
sg15
g100
sg23
g24
sg1836
Vfrogs/ab17.jpg
p1854
sg1839
g26
(g185
S'\x90\x01\x00\x00\x00\x00\x00\x00'
p1855
tp1856
Rp1857
sS'trials.thisIndex'
p1858
g26
(g135
S'\x10\x00\x00\x00'
p1859
tp1860
Rp1861
sg39
g44
sS'trials_2.thisRepN'
p1862
I0
sS'trials_2.thisTrialN'
p1863
I0
sS'trials.thisRepN'
p1864
I0
sS'trials.thisN'
p1865
I0
sg59
g156
sg36
g12
sS'trials.thisTrialN'
p1866
I0
sg1840
g203
sg1837
g26
(g185
S'\x00\x00\x00\x00\x00\x00\x00\x00'
p1867
tp1868
Rp1869
sg16
F12.721030119522766
sS'trials_2.thisN'
p1870
I0
sa(dp1871
g19
(lp1872
F0.2004993518203264
asg18
I0
sg25
g35
sg17
(lp1873
S'l'
p1874
asg56
g154
sg1838
g26
(g185
S'\x00\x00\x00\x00\x00\x00\x00\x00'
p1875
tp1876
Rp1877
sg37
g38
sS'trials_2.thisIndex'
p1878
g1853
sg23
g24
sg1836
Vfrogs/ab69.jpg
p1879
sg1839
g26
(g185
S'\x90\x01\x00\x00\x00\x00\x00\x00'
p1880
tp1881
Rp1882
sS'trials.thisIndex'
p1883
g26
(g135
S'C\x00\x00\x00'
p1884
tp1885
Rp1886
sg39
g44
sS'trials_2.thisRepN'
p1887
I0
sS'trials_2.thisTrialN'
p1888
I0
sS'trials.thisRepN'
p1889
I0
sS'trials.thisN'
p1890
I1
sg59
g156
sg36
g12
sS'trials.thisTrialN'
p1891
I1
sg1840
g203
sg1837
g26
(g185
S'\x00\x00\x00\x00\x00\x00\x00\x00'
p1892
tp1893
Rp1894
sS'trials_2.thisN'
p1895
I0
sa(dp1896
g19
(lp1897
F24.5094285567684
asg18
I0
sg25
g35
sg17
(lp1898
S'l'
p1899
asg56
g154
sg1838
g26
(g185
S'\x00\x00\x00\x00\x00\x00\x00\x00'
p1900
tp1901
Rp1902
sg37
g38
sS'trials_2.thisIndex'
p1903
g1853
sg23
g24
sg1836
Vfrogs/ab42.jpg
p1904
sg1839
g26
(g185
S'\x90\x01\x00\x00\x00\x00\x00\x00'
p1905
tp1906
Rp1907
sS'trials.thisIndex'
p1908
g26
(g135
S')\x00\x00\x00'
p1909
tp1910
Rp1911
sg39
g44
sS'trials_2.thisRepN'
p1912
I0
sS'trials_2.thisTrialN'
p1913
I0
sS'trials.thisRepN'
p1914
I0
sS'trials.thisN'
p1915
I2
sg59
g156
sg36
g12
sS'trials.thisTrialN'
p1916
I2
sg1840
g203
sg1837
g26
(g185
S'\x00\x00\x00\x00\x00\x00\x00\x00'
p1917
tp1918
Rp1919
sS'trials_2.thisN'
p1920
I0
sa(dp1921
g19
(lp1922
F4.1663252123616985
asg18
I0
sg25
g35
sg17
(lp1923
S'l'
p1924
asg56
g154
sg1838
g26
(g185
S'\x00\x00\x00\x00\x00\x00\x00\x00'
p1925
tp1926
Rp1927
sg37
g38
sS'trials_2.thisIndex'
p1928
g1853
sg23
g24
sg1836
Vfrogs/ab65.jpg
p1929
sg1839
g26
(g185
S'\x90\x01\x00\x00\x00\x00\x00\x00'
p1930
tp1931
Rp1932
sS'trials.thisIndex'
p1933
g26
(g135
S'?\x00\x00\x00'
p1934
tp1935
Rp1936
sg39
g44
sS'trials_2.thisRepN'
p1937
I0
sS'trials_2.thisTrialN'
p1938
I0
sS'trials.thisRepN'
p1939
I0
sS'trials.thisN'
p1940
I3
sg59
g156
sg36
g12
sS'trials.thisTrialN'
p1941
I3
sg1840
g203
sg1837
g26
(g185
S'\x00\x00\x00\x00\x00\x00\x00\x00'
p1942
tp1943
Rp1944
sS'trials_2.thisN'
p1945
I0
sa(dp1946
g19
(lp1947
F7.848877127769811
asg18
I0
sg25
g35
sg17
(lp1948
S'l'
p1949
asg56
g154
sg1838
g26
(g185
S'\x00\x00\x00\x00\x00\x00\x00\x00'
p1950
tp1951
Rp1952
sg37
g38
sS'trials_2.thisIndex'
p1953
g1853
sg23
g24
sg1836
Vfrogs/ab33.jpg
p1954
sg1839
g26
(g185
S'\x90\x01\x00\x00\x00\x00\x00\x00'
p1955
tp1956
Rp1957
sS'trials.thisIndex'
p1958
g26
(g135
S' \x00\x00\x00'
p1959
tp1960
Rp1961
sg39
g44
sS'trials_2.thisRepN'
p1962
I0
sS'trials_2.thisTrialN'
p1963
I0
sS'trials.thisRepN'
p1964
I0
sS'trials.thisN'
p1965
I4
sg59
g156
sg36
g12
sS'trials.thisTrialN'
p1966
I4
sg1840
g203
sg1837
g26
(g185
S'\x00\x00\x00\x00\x00\x00\x00\x00'
p1967
tp1968
Rp1969
sS'trials_2.thisN'
p1970
I0
sa(dp1971
g19
(lp1972
F6.198916062930948
asg18
I0
sg25
g35
sg17
(lp1973
S'l'
p1974
asg56
g154
sg1838
g26
(g185
S'\x00\x00\x00\x00\x00\x00\x00\x00'
p1975
tp1976
Rp1977
sg37
g38
sS'trials_2.thisIndex'
p1978
g1853
sg23
g24
sg1836
Vfrogs/ab25.jpg
p1979
sg1839
g26
(g185
S'\x90\x01\x00\x00\x00\x00\x00\x00'
p1980
tp1981
Rp1982
sS'trials.thisIndex'
p1983
g26
(g135
S'\x18\x00\x00\x00'
p1984
tp1985
Rp1986
sg39
g44
sS'trials_2.thisRepN'
p1987
I0
sS'trials_2.thisTrialN'
p1988
I0
sS'trials.thisRepN'
p1989
I0
sS'trials.thisN'
p1990
I5
sg59
g156
sg36
g12
sS'trials.thisTrialN'
p1991
I5
sg1840
g203
sg1837
g26
(g185
S'\x00\x00\x00\x00\x00\x00\x00\x00'
p1992
tp1993
Rp1994
sS'trials_2.thisN'
p1995
I0
sa(dp1996
g19
(lp1997
F0.9833156693421188
asg18
I0
sg25
g35
sg17
(lp1998
S'a'
p1999
asg56
g154
sg1838
g26
(g185
S'\x00\x00\x00\x00\x00\x00\x00\x00'
p2000
tp2001
Rp2002
sg37
g38
sS'trials_2.thisIndex'
p2003
g1853
sg23
g24
sg1836
Vlogos/3.jpg
p2004
sg1839
g26
(g185
S'\x90\x01\x00\x00\x00\x00\x00\x00'
p2005
tp2006
Rp2007
sS'trials.thisIndex'
p2008
g26
(g135
S'X\x00\x00\x00'
p2009
tp2010
Rp2011
sg39
g44
sS'trials_2.thisRepN'
p2012
I0
sS'trials_2.thisTrialN'
p2013
I0
sS'trials.thisRepN'
p2014
I0
sS'trials.thisN'
p2015
I6
sg59
g156
sg36
g12
sS'trials.thisTrialN'
p2016
I6
sg1840
g1670
sg1837
g26
(g185
S'\x00\x00\x00\x00\x00\x00\x00\x00'
p2017
tp2018
Rp2019
sS'trials_2.thisN'
p2020
I0
sa(dp2021
g19
(lp2022
F2.216776704059157
asg18
I0
sg25
g35
sg17
(lp2023
S'l'
p2024
asg56
g154
sg1838
g26
(g185
S'\x00\x00\x00\x00\x00\x00\x00\x00'
p2025
tp2026
Rp2027
sg37
g38
sS'trials_2.thisIndex'
p2028
g1853
sg23
g24
sg1836
Vfrogs/ab29.jpg
p2029
sg1839
g26
(g185
S'\x90\x01\x00\x00\x00\x00\x00\x00'
p2030
tp2031
Rp2032
sS'trials.thisIndex'
p2033
g26
(g135
S'\x1c\x00\x00\x00'
p2034
tp2035
Rp2036
sg39
g44
sS'trials_2.thisRepN'
p2037
I0
sS'trials_2.thisTrialN'
p2038
I0
sS'trials.thisRepN'
p2039
I0
sS'trials.thisN'
p2040
I7
sg59
g156
sg36
g12
sS'trials.thisTrialN'
p2041
I7
sg1840
g203
sg1837
g26
(g185
S'\x00\x00\x00\x00\x00\x00\x00\x00'
p2042
tp2043
Rp2044
sS'trials_2.thisN'
p2045
I0
sa(dp2046
g19
(lp2047
F0.15077435232524294
asg18
I0
sg25
g35
sg17
(lp2048
S'a'
p2049
asg56
g154
sg1838
g26
(g185
S'\x00\x00\x00\x00\x00\x00\x00\x00'
p2050
tp2051
Rp2052
sg37
g38
sS'trials_2.thisIndex'
p2053
g1853
sg23
g24
sg1836
g2004
sg1839
g26
(g185
S'\x90\x01\x00\x00\x00\x00\x00\x00'
p2054
tp2055
Rp2056
sS'trials.thisIndex'
p2057
g26
(g135
S'U\x00\x00\x00'
p2058
tp2059
Rp2060
sg39
g44
sS'trials_2.thisRepN'
p2061
I0
sS'trials_2.thisTrialN'
p2062
I0
sS'trials.thisRepN'
p2063
I0
sS'trials.thisN'
p2064
I8
sg59
g156
sg36
g12
sS'trials.thisTrialN'
p2065
I8
sg1840
g1670
sg1837
g26
(g185
S'\x00\x00\x00\x00\x00\x00\x00\x00'
p2066
tp2067
Rp2068
sS'trials_2.thisN'
p2069
I0
sa(dp2070
g19
(lp2071
F0.21755674605083186
asg18
I0
sg25
g35
sg17
(lp2072
S'l'
p2073
asg56
g154
sg1838
g26
(g185
S'\x00\x00\x00\x00\x00\x00\x00\x00'
p2074
tp2075
Rp2076
sg37
g38
sS'trials_2.thisIndex'
p2077
g1853
sg23
g24
sg1836
Vfrogs/ab40.jpg
p2078
sg1839
g26
(g185
S'\x90\x01\x00\x00\x00\x00\x00\x00'
p2079
tp2080
Rp2081
sS'trials.thisIndex'
p2082
g26
(g135
S"'\x00\x00\x00"
p2083
tp2084
Rp2085
sg39
g44
sS'trials_2.thisRepN'
p2086
I0
sS'trials_2.thisTrialN'
p2087
I0
sS'trials.thisRepN'
p2088
I0
sS'trials.thisN'
p2089
I9
sg59
g156
sg36
g12
sS'trials.thisTrialN'
p2090
I9
sg1840
g203
sg1837
g26
(g185
S'\x00\x00\x00\x00\x00\x00\x00\x00'
p2091
tp2092
Rp2093
sS'trials_2.thisN'
p2094
I0
sa(dp2095
g19
(lp2096
F0.0177383690897841
asg18
I0
sg25
g35
sg17
(lp2097
S'l'
p2098
asg56
g154
sg1838
g26
(g185
S'\x00\x00\x00\x00\x00\x00\x00\x00'
p2099
tp2100
Rp2101
sg37
g38
sS'trials_2.thisIndex'
p2102
g1853
sg23
g24
sg1836
Vfrogs/ab16.jpg
p2103
sg1839
g26
(g185
S'\x90\x01\x00\x00\x00\x00\x00\x00'
p2104
tp2105
Rp2106
sS'trials.thisIndex'
p2107
g26
(g135
S'\x0f\x00\x00\x00'
p2108
tp2109
Rp2110
sg39
g44
sS'trials_2.thisRepN'
p2111
I0
sS'trials_2.thisTrialN'
p2112
I0
sS'trials.thisRepN'
p2113
I0
sS'trials.thisN'
p2114
I10
sg59
g156
sg36
g12
sS'trials.thisTrialN'
p2115
I10
sg1840
g203
sg1837
g26
(g185
S'\x00\x00\x00\x00\x00\x00\x00\x00'
p2116
tp2117
Rp2118
sS'trials_2.thisN'
p2119
I0
sa(dp2120
g19
(lp2121
F4.382881916011684
asg18
I0
sg25
g35
sg17
(lp2122
S'l'
p2123
asg56
g154
sg1838
g26
(g185
S'\x00\x00\x00\x00\x00\x00\x00\x00'
p2124
tp2125
Rp2126
sg37
g38
sS'trials_2.thisIndex'
p2127
g1853
sg23
g24
sg1836
Vfrogs/ab20.jpg
p2128
sg1839
g26
(g185
S'\x90\x01\x00\x00\x00\x00\x00\x00'
p2129
tp2130
Rp2131
sS'trials.thisIndex'
p2132
g26
(g135
S'\x13\x00\x00\x00'
p2133
tp2134
Rp2135
sg39
g44
sS'trials_2.thisRepN'
p2136
I0
sS'trials_2.thisTrialN'
p2137
I0
sS'trials.thisRepN'
p2138
I0
sS'trials.thisN'
p2139
I11
sg59
g156
sg36
g12
sS'trials.thisTrialN'
p2140
I11
sg1840
g203
sg1837
g26
(g185
S'\x00\x00\x00\x00\x00\x00\x00\x00'
p2141
tp2142
Rp2143
sS'trials_2.thisN'
p2144
I0
sa(dp2145
g19
(lp2146
F0.2838156905345386
asg18
I0
sg25
g35
sg17
(lp2147
S'l'
p2148
asg56
g154
sg1838
g26
(g185
S'\x00\x00\x00\x00\x00\x00\x00\x00'
p2149
tp2150
Rp2151
sg37
g38
sS'trials_2.thisIndex'
p2152
g1853
sg23
g24
sg1836
Vfrogs/ab9.jpg
p2153
sg1839
g26
(g185
S'\x90\x01\x00\x00\x00\x00\x00\x00'
p2154
tp2155
Rp2156
sS'trials.thisIndex'
p2157
g26
(g135
S'\x08\x00\x00\x00'
p2158
tp2159
Rp2160
sg39
g44
sS'trials_2.thisRepN'
p2161
I0
sS'trials_2.thisTrialN'
p2162
I0
sS'trials.thisRepN'
p2163
I0
sS'trials.thisN'
p2164
I12
sg59
g156
sg36
g12
sS'trials.thisTrialN'
p2165
I12
sg1840
g203
sg1837
g26
(g185
S'\x00\x00\x00\x00\x00\x00\x00\x00'
p2166
tp2167
Rp2168
sS'trials_2.thisN'
p2169
I0
sa(dp2170
g19
(lp2171
F0.2177611277656979
asg18
I0
sg25
g35
sg17
(lp2172
S'l'
p2173
asg56
g154
sg1838
g26
(g185
S'\x00\x00\x00\x00\x00\x00\x00\x00'
p2174
tp2175
Rp2176
sg37
g38
sS'trials_2.thisIndex'
p2177
g1853
sg23
g24
sg1836
Vfrogs/ab3.jpg
p2178
sg1839
g26
(g185
S'\x90\x01\x00\x00\x00\x00\x00\x00'
p2179
tp2180
Rp2181
sS'trials.thisIndex'
p2182
g26
(g135
S'\x02\x00\x00\x00'
p2183
tp2184
Rp2185
sg39
g44
sS'trials_2.thisRepN'
p2186
I0
sS'trials_2.thisTrialN'
p2187
I0
sS'trials.thisRepN'
p2188
I0
sS'trials.thisN'
p2189
I13
sg59
g156
sg36
g12
sS'trials.thisTrialN'
p2190
I13
sg1840
g203
sg1837
g26
(g185
S'\x00\x00\x00\x00\x00\x00\x00\x00'
p2191
tp2192
Rp2193
sS'trials_2.thisN'
p2194
I0
sa(dp2195
g19
(lp2196
F0.2509575372459949
asg18
I0
sg25
g35
sg17
(lp2197
S'l'
p2198
asg56
g154
sg1838
g26
(g185
S'\x00\x00\x00\x00\x00\x00\x00\x00'
p2199
tp2200
Rp2201
sg37
g38
sS'trials_2.thisIndex'
p2202
g1853
sg23
g24
sg1836
Vfrogs/ab1.jpg
p2203
sg1839
g26
(g185
S'\x90\x01\x00\x00\x00\x00\x00\x00'
p2204
tp2205
Rp2206
sS'trials.thisIndex'
p2207
g26
(g135
S'\x00\x00\x00\x00'
p2208
tp2209
Rp2210
sg39
g44
sS'trials_2.thisRepN'
p2211
I0
sS'trials_2.thisTrialN'
p2212
I0
sS'trials.thisRepN'
p2213
I0
sS'trials.thisN'
p2214
I14
sg59
g156
sg36
g12
sS'trials.thisTrialN'
p2215
I14
sg1840
g203
sg1837
g26
(g185
S'\x00\x00\x00\x00\x00\x00\x00\x00'
p2216
tp2217
Rp2218
sS'trials_2.thisN'
p2219
I0
sa(dp2220
g19
(lp2221
F3.61568518076092
asg18
I0
sg25
g35
sg17
(lp2222
S'l'
p2223
asg56
g154
sg1838
g26
(g185
S'\x00\x00\x00\x00\x00\x00\x00\x00'
p2224
tp2225
Rp2226
sg37
g38
sS'trials_2.thisIndex'
p2227
g1853
sg23
g24
sg1836
Vfrogs/ab23.jpg
p2228
sg1839
g26
(g185
S'\x90\x01\x00\x00\x00\x00\x00\x00'
p2229
tp2230
Rp2231
sS'trials.thisIndex'
p2232
g26
(g135
S'\x16\x00\x00\x00'
p2233
tp2234
Rp2235
sg39
g44
sS'trials_2.thisRepN'
p2236
I0
sS'trials_2.thisTrialN'
p2237
I0
sS'trials.thisRepN'
p2238
I0
sS'trials.thisN'
p2239
I15
sg59
g156
sg36
g12
sS'trials.thisTrialN'
p2240
I15
sg1840
g203
sg1837
g26
(g185
S'\x00\x00\x00\x00\x00\x00\x00\x00'
p2241
tp2242
Rp2243
sS'trials_2.thisN'
p2244
I0
sa(dp2245
g19
(lp2246
F0.7508662794716656
asg18
I0
sg25
g35
sg17
(lp2247
S'l'
p2248
asg56
g154
sg1838
g26
(g185
S'\x00\x00\x00\x00\x00\x00\x00\x00'
p2249
tp2250
Rp2251
sg37
g38
sS'trials_2.thisIndex'
p2252
g1853
sg23
g24
sg1836
Vfrogs/ab7.jpg
p2253
sg1839
g26
(g185
S'\x90\x01\x00\x00\x00\x00\x00\x00'
p2254
tp2255
Rp2256
sS'trials.thisIndex'
p2257
g26
(g135
S'\x06\x00\x00\x00'
p2258
tp2259
Rp2260
sg39
g44
sS'trials_2.thisRepN'
p2261
I0
sS'trials_2.thisTrialN'
p2262
I0
sS'trials.thisRepN'
p2263
I0
sS'trials.thisN'
p2264
I16
sg59
g156
sg36
g12
sS'trials.thisTrialN'
p2265
I16
sg1840
g203
sg1837
g26
(g185
S'\x00\x00\x00\x00\x00\x00\x00\x00'
p2266
tp2267
Rp2268
sS'trials_2.thisN'
p2269
I0
sa(dp2270
g19
(lp2271
F0.034424930992827285
asg18
I0
sg25
g35
sg17
(lp2272
S'a'
p2273
asg56
g154
sg1838
g26
(g185
S'\x00\x00\x00\x00\x00\x00\x00\x00'
p2274
tp2275
Rp2276
sg37
g38
sS'trials_2.thisIndex'
p2277
g1853
sg23
g24
sg1836
g2004
sg1839
g26
(g185
S'\x90\x01\x00\x00\x00\x00\x00\x00'
p2278
tp2279
Rp2280
sS'trials.thisIndex'
p2281
g26
(g135
S'R\x00\x00\x00'
p2282
tp2283
Rp2284
sg39
g44
sS'trials_2.thisRepN'
p2285
I0
sS'trials_2.thisTrialN'
p2286
I0
sS'trials.thisRepN'
p2287
I0
sS'trials.thisN'
p2288
I17
sg59
g156
sg36
g12
sS'trials.thisTrialN'
p2289
I17
sg1840
g1670
sg1837
g26
(g185
S'\x00\x00\x00\x00\x00\x00\x00\x00'
p2290
tp2291
Rp2292
sS'trials_2.thisN'
p2293
I0
sa(dp2294
g19
(lp2295
F0.2843949208036065
asg18
I0
sg25
g35
sg17
(lp2296
S'l'
p2297
asg56
g154
sg1838
g26
(g185
S'\x00\x00\x00\x00\x00\x00\x00\x00'
p2298
tp2299
Rp2300
sg37
g38
sS'trials_2.thisIndex'
p2301
g1853
sg23
g24
sg1836
Vfrogs/ab72.jpg
p2302
sg1839
g26
(g185
S'\x90\x01\x00\x00\x00\x00\x00\x00'
p2303
tp2304
Rp2305
sS'trials.thisIndex'
p2306
g26
(g135
S'F\x00\x00\x00'
p2307
tp2308
Rp2309
sg39
g44
sS'trials_2.thisRepN'
p2310
I0
sS'trials_2.thisTrialN'
p2311
I0
sS'trials.thisRepN'
p2312
I0
sS'trials.thisN'
p2313
I18
sg59
g156
sg36
g12
sS'trials.thisTrialN'
p2314
I18
sg1840
g203
sg1837
g26
(g185
S'\x00\x00\x00\x00\x00\x00\x00\x00'
p2315
tp2316
Rp2317
sS'trials_2.thisN'
p2318
I0
sa(dp2319
g19
(lp2320
F0.01770400797977345
asg18
I0
sg25
g35
sg17
(lp2321
S'l'
p2322
asg56
g154
sg1838
g26
(g185
S'\x00\x00\x00\x00\x00\x00\x00\x00'
p2323
tp2324
Rp2325
sg37
g38
sS'trials_2.thisIndex'
p2326
g1853
sg23
g24
sg1836
Vfrogs/ab41.jpg
p2327
sg1839
g26
(g185
S'\x90\x01\x00\x00\x00\x00\x00\x00'
p2328
tp2329
Rp2330
sS'trials.thisIndex'
p2331
g26
(g135
S'(\x00\x00\x00'
p2332
tp2333
Rp2334
sg39
g44
sS'trials_2.thisRepN'
p2335
I0
sS'trials_2.thisTrialN'
p2336
I0
sS'trials.thisRepN'
p2337
I0
sS'trials.thisN'
p2338
I19
sg59
g156
sg36
g12
sS'trials.thisTrialN'
p2339
I19
sg1840
g203
sg1837
g26
(g185
S'\x00\x00\x00\x00\x00\x00\x00\x00'
p2340
tp2341
Rp2342
sS'trials_2.thisN'
p2343
I0
sa(dp2344
g19
(lp2345
F0.06761732424638467
asg18
I0
sg25
g35
sg17
(lp2346
S'l'
p2347
asg56
g154
sg1838
g26
(g185
S'\x00\x00\x00\x00\x00\x00\x00\x00'
p2348
tp2349
Rp2350
sg37
g38
sS'trials_2.thisIndex'
p2351
g1853
sg23
g24
sg1836
Vfrogs/ab53.jpg
p2352
sg1839
g26
(g185
S'\x90\x01\x00\x00\x00\x00\x00\x00'
p2353
tp2354
Rp2355
sS'trials.thisIndex'
p2356
g26
(g135
S'4\x00\x00\x00'
p2357
tp2358
Rp2359
sg39
g44
sS'trials_2.thisRepN'
p2360
I0
sS'trials_2.thisTrialN'
p2361
I0
sS'trials.thisRepN'
p2362
I0
sS'trials.thisN'
p2363
I20
sg59
g156
sg36
g12
sS'trials.thisTrialN'
p2364
I20
sg1840
g203
sg1837
g26
(g185
S'\x00\x00\x00\x00\x00\x00\x00\x00'
p2365
tp2366
Rp2367
sS'trials_2.thisN'
p2368
I0
sa(dp2369
g19
(lp2370
F0.5368197223870084
asg18
I0
sg25
g35
sg17
(lp2371
S'l'
p2372
asg56
g154
sg1838
g26
(g185
S'\x00\x00\x00\x00\x00\x00\x00\x00'
p2373
tp2374
Rp2375
sg37
g38
sS'trials_2.thisIndex'
p2376
g1853
sg23
g24
sg1836
Vfrogs/ab58.jpg
p2377
sg1839
g26
(g185
S'\x90\x01\x00\x00\x00\x00\x00\x00'
p2378
tp2379
Rp2380
sS'trials.thisIndex'
p2381
g26
(g135
S'9\x00\x00\x00'
p2382
tp2383
Rp2384
sg39
g44
sS'trials_2.thisRepN'
p2385
I0
sS'trials_2.thisTrialN'
p2386
I0
sS'trials.thisRepN'
p2387
I0
sS'trials.thisN'
p2388
I21
sg59
g156
sg36
g12
sS'trials.thisTrialN'
p2389
I21
sg1840
g203
sg1837
g26
(g185
S'\x00\x00\x00\x00\x00\x00\x00\x00'
p2390
tp2391
Rp2392
sS'trials_2.thisN'
p2393
I0
sa(dp2394
g19
(lp2395
F0.18407384516467573
asg18
I0
sg25
g35
sg17
(lp2396
S'l'
p2397
asg56
g154
sg1838
g26
(g185
S'\x00\x00\x00\x00\x00\x00\x00\x00'
p2398
tp2399
Rp2400
sg37
g38
sS'trials_2.thisIndex'
p2401
g1853
sg23
g24
sg1836
Vfrogs/ab78.jpg
p2402
sg1839
g26
(g185
S'\x90\x01\x00\x00\x00\x00\x00\x00'
p2403
tp2404
Rp2405
sS'trials.thisIndex'
p2406
g26
(g135
S'L\x00\x00\x00'
p2407
tp2408
Rp2409
sg39
g44
sS'trials_2.thisRepN'
p2410
I0
sS'trials_2.thisTrialN'
p2411
I0
sS'trials.thisRepN'
p2412
I0
sS'trials.thisN'
p2413
I22
sg59
g156
sg36
g12
sS'trials.thisTrialN'
p2414
I22
sg1840
g203
sg1837
g26
(g185
S'\x00\x00\x00\x00\x00\x00\x00\x00'
p2415
tp2416
Rp2417
sS'trials_2.thisN'
p2418
I0
sa(dp2419
g19
(lp2420
F0.05109007297869539
asg18
I0
sg25
g35
sg17
(lp2421
S'a'
p2422
asg56
g154
sg1838
g26
(g185
S'\x00\x00\x00\x00\x00\x00\x00\x00'
p2423
tp2424
Rp2425
sg37
g38
sS'trials_2.thisIndex'
p2426
g1853
sg23
g24
sg1836
g2004
sg1839
g26
(g185
S'\x90\x01\x00\x00\x00\x00\x00\x00'
p2427
tp2428
Rp2429
sS'trials.thisIndex'
p2430
g26
(g135
S'Y\x00\x00\x00'
p2431
tp2432
Rp2433
sg39
g44
sS'trials_2.thisRepN'
p2434
I0
sS'trials_2.thisTrialN'
p2435
I0
sS'trials.thisRepN'
p2436
I0
sS'trials.thisN'
p2437
I23
sg59
g156
sg36
g12
sS'trials.thisTrialN'
p2438
I23
sg1840
g1670
sg1837
g26
(g185
S'\x00\x00\x00\x00\x00\x00\x00\x00'
p2439
tp2440
Rp2441
sS'trials_2.thisN'
p2442
I0
sa(dp2443
g19
(lp2444
F0.3342033687295043
asg18
I0
sg25
g35
sg17
(lp2445
S'l'
p2446
asg56
g154
sg1838
g26
(g185
S'\x00\x00\x00\x00\x00\x00\x00\x00'
p2447
tp2448
Rp2449
sg37
g38
sS'trials_2.thisIndex'
p2450
g1853
sg23
g24
sg1836
Vfrogs/ab64.jpg
p2451
sg1839
g26
(g185
S'\x90\x01\x00\x00\x00\x00\x00\x00'
p2452
tp2453
Rp2454
sS'trials.thisIndex'
p2455
g26
(g135
S'>\x00\x00\x00'
p2456
tp2457
Rp2458
sg39
g44
sS'trials_2.thisRepN'
p2459
I0
sS'trials_2.thisTrialN'
p2460
I0
sS'trials.thisRepN'
p2461
I0
sS'trials.thisN'
p2462
I24
sg59
g156
sg36
g12
sS'trials.thisTrialN'
p2463
I24
sg1840
g203
sg1837
g26
(g185
S'\x00\x00\x00\x00\x00\x00\x00\x00'
p2464
tp2465
Rp2466
sS'trials_2.thisN'
p2467
I0
sa(dp2468
g19
(lp2469
F1.6337604673171882
asg18
I0
sg25
g35
sg17
(lp2470
S'l'
p2471
asg56
g154
sg1838
g26
(g185
S'\x00\x00\x00\x00\x00\x00\x00\x00'
p2472
tp2473
Rp2474
sg37
g38
sS'trials_2.thisIndex'
p2475
g1853
sg23
g24
sg1836
Vfrogs/ab66.jpg
p2476
sg1839
g26
(g185
S'\x90\x01\x00\x00\x00\x00\x00\x00'
p2477
tp2478
Rp2479
sS'trials.thisIndex'
p2480
g26
(g135
S'@\x00\x00\x00'
p2481
tp2482
Rp2483
sg39
g44
sS'trials_2.thisRepN'
p2484
I0
sS'trials_2.thisTrialN'
p2485
I0
sS'trials.thisRepN'
p2486
I0
sS'trials.thisN'
p2487
I25
sg59
g156
sg36
g12
sS'trials.thisTrialN'
p2488
I25
sg1840
g203
sg1837
g26
(g185
S'\x00\x00\x00\x00\x00\x00\x00\x00'
p2489
tp2490
Rp2491
sS'trials_2.thisN'
p2492
I0
sa(dp2493
g19
(lp2494
F0.26358457855531015
asg18
I0
sg25
g35
sg17
(lp2495
S'l'
p2496
asg56
g154
sg1838
g26
(g185
S'\x00\x00\x00\x00\x00\x00\x00\x00'
p2497
tp2498
Rp2499
sg37
g38
sS'trials_2.thisIndex'
p2500
g1853
sg23
g24
sg1836
Vfrogs/ab56.jpg
p2501
sg1839
g26
(g185
S'\x90\x01\x00\x00\x00\x00\x00\x00'
p2502
tp2503
Rp2504
sS'trials.thisIndex'
p2505
g26
(g135
S'7\x00\x00\x00'
p2506
tp2507
Rp2508
sg39
g44
sS'trials_2.thisRepN'
p2509
I0
sS'trials_2.thisTrialN'
p2510
I0
sS'trials.thisRepN'
p2511
I0
sS'trials.thisN'
p2512
I26
sg59
g156
sg36
g12
sS'trials.thisTrialN'
p2513
I26
sg1840
g203
sg1837
g26
(g185
S'\x00\x00\x00\x00\x00\x00\x00\x00'
p2514
tp2515
Rp2516
sS'trials_2.thisN'
p2517
I0
sa(dp2518
g19
(lp2519
F0.6840762995343539
asg18
I0
sg25
g35
sg17
(lp2520
S'l'
p2521
asg56
g154
sg1838
g26
(g185
S'\x00\x00\x00\x00\x00\x00\x00\x00'
p2522
tp2523
Rp2524
sg37
g38
sS'trials_2.thisIndex'
p2525
g1853
sg23
g24
sg1836
Vfrogs/ab36.jpg
p2526
sg1839
g26
(g185
S'\x90\x01\x00\x00\x00\x00\x00\x00'
p2527
tp2528
Rp2529
sS'trials.thisIndex'
p2530
g26
(g135
S'#\x00\x00\x00'
p2531
tp2532
Rp2533
sg39
g44
sS'trials_2.thisRepN'
p2534
I0
sS'trials_2.thisTrialN'
p2535
I0
sS'trials.thisRepN'
p2536
I0
sS'trials.thisN'
p2537
I27
sg59
g156
sg36
g12
sS'trials.thisTrialN'
p2538
I27
sg1840
g203
sg1837
g26
(g185
S'\x00\x00\x00\x00\x00\x00\x00\x00'
p2539
tp2540
Rp2541
sS'trials_2.thisN'
p2542
I0
sa(dp2543
g19
(lp2544
F1.0839544737464166
asg18
I0
sg25
g35
sg17
(lp2545
S'l'
p2546
asg56
g154
sg1838
g26
(g185
S'\x00\x00\x00\x00\x00\x00\x00\x00'
p2547
tp2548
Rp2549
sg37
g38
sS'trials_2.thisIndex'
p2550
g1853
sg23
g24
sg1836
Vfrogs/ab49.jpg
p2551
sg1839
g26
(g185
S'\x90\x01\x00\x00\x00\x00\x00\x00'
p2552
tp2553
Rp2554
sS'trials.thisIndex'
p2555
g26
(g135
S'0\x00\x00\x00'
p2556
tp2557
Rp2558
sg39
g44
sS'trials_2.thisRepN'
p2559
I0
sS'trials_2.thisTrialN'
p2560
I0
sS'trials.thisRepN'
p2561
I0
sS'trials.thisN'
p2562
I28
sg59
g156
sg36
g12
sS'trials.thisTrialN'
p2563
I28
sg1840
g203
sg1837
g26
(g185
S'\x00\x00\x00\x00\x00\x00\x00\x00'
p2564
tp2565
Rp2566
sS'trials_2.thisN'
p2567
I0
sa(dp2568
g19
(lp2569
F2.400242312811315
asg18
I0
sg25
g35
sg17
(lp2570
S'l'
p2571
asg56
g154
sg1838
g26
(g185
S'\x00\x00\x00\x00\x00\x00\x00\x00'
p2572
tp2573
Rp2574
sg37
g38
sS'trials_2.thisIndex'
p2575
g1853
sg23
g24
sg1836
Vfrogs/ab21.jpg
p2576
sg1839
g26
(g185
S'\x90\x01\x00\x00\x00\x00\x00\x00'
p2577
tp2578
Rp2579
sS'trials.thisIndex'
p2580
g26
(g135
S'\x14\x00\x00\x00'
p2581
tp2582
Rp2583
sg39
g44
sS'trials_2.thisRepN'
p2584
I0
sS'trials_2.thisTrialN'
p2585
I0
sS'trials.thisRepN'
p2586
I0
sS'trials.thisN'
p2587
I29
sg59
g156
sg36
g12
sS'trials.thisTrialN'
p2588
I29
sg1840
g203
sg1837
g26
(g185
S'\x00\x00\x00\x00\x00\x00\x00\x00'
p2589
tp2590
Rp2591
sS'trials_2.thisN'
p2592
I0
sa(dp2593
g19
(lp2594
F1.283870132829179
asg18
I0
sg25
g35
sg17
(lp2595
S'l'
p2596
asg56
g154
sg1838
g26
(g185
S'\x00\x00\x00\x00\x00\x00\x00\x00'
p2597
tp2598
Rp2599
sg37
g38
sS'trials_2.thisIndex'
p2600
g1853
sg23
g24
sg1836
Vfrogs/ab77.jpg
p2601
sg1839
g26
(g185
S'\x90\x01\x00\x00\x00\x00\x00\x00'
p2602
tp2603
Rp2604
sS'trials.thisIndex'
p2605
g26
(g135
S'K\x00\x00\x00'
p2606
tp2607
Rp2608
sg39
g44
sS'trials_2.thisRepN'
p2609
I0
sS'trials_2.thisTrialN'
p2610
I0
sS'trials.thisRepN'
p2611
I0
sS'trials.thisN'
p2612
I30
sg59
g156
sg36
g12
sS'trials.thisTrialN'
p2613
I30
sg1840
g203
sg1837
g26
(g185
S'\x00\x00\x00\x00\x00\x00\x00\x00'
p2614
tp2615
Rp2616
sS'trials_2.thisN'
p2617
I0
sa(dp2618
g19
(lp2619
F0.8674589061120059
asg18
I0
sg25
g35
sg17
(lp2620
S'l'
p2621
asg56
g154
sg1838
g26
(g185
S'\x00\x00\x00\x00\x00\x00\x00\x00'
p2622
tp2623
Rp2624
sg37
g38
sS'trials_2.thisIndex'
p2625
g1853
sg23
g24
sg1836
Vfrogs/ab54.jpg
p2626
sg1839
g26
(g185
S'\x90\x01\x00\x00\x00\x00\x00\x00'
p2627
tp2628
Rp2629
sS'trials.thisIndex'
p2630
g26
(g135
S'5\x00\x00\x00'
p2631
tp2632
Rp2633
sg39
g44
sS'trials_2.thisRepN'
p2634
I0
sS'trials_2.thisTrialN'
p2635
I0
sS'trials.thisRepN'
p2636
I0
sS'trials.thisN'
p2637
I31
sg59
g156
sg36
g12
sS'trials.thisTrialN'
p2638
I31
sg1840
g203
sg1837
g26
(g185
S'\x00\x00\x00\x00\x00\x00\x00\x00'
p2639
tp2640
Rp2641
sS'trials_2.thisN'
p2642
I0
sa(dp2643
g19
(lp2644
F0.6175781659621862
asg18
I0
sg25
g35
sg17
(lp2645
S'l'
p2646
asg56
g154
sg1838
g26
(g185
S'\x00\x00\x00\x00\x00\x00\x00\x00'
p2647
tp2648
Rp2649
sg37
g38
sS'trials_2.thisIndex'
p2650
g1853
sg23
g24
sg1836
Vfrogs/ab76.jpg
p2651
sg1839
g26
(g185
S'\x90\x01\x00\x00\x00\x00\x00\x00'
p2652
tp2653
Rp2654
sS'trials.thisIndex'
p2655
g26
(g135
S'J\x00\x00\x00'
p2656
tp2657
Rp2658
sg39
g44
sS'trials_2.thisRepN'
p2659
I0
sS'trials_2.thisTrialN'
p2660
I0
sS'trials.thisRepN'
p2661
I0
sS'trials.thisN'
p2662
I32
sg59
g156
sg36
g12
sS'trials.thisTrialN'
p2663
I32
sg1840
g203
sg1837
g26
(g185
S'\x00\x00\x00\x00\x00\x00\x00\x00'
p2664
tp2665
Rp2666
sS'trials_2.thisN'
p2667
I0
sa(dp2668
g19
(lp2669
F0.900772232649615
asg18
I0
sg25
g35
sg17
(lp2670
S'a'
p2671
asg56
g154
sg1838
g26
(g185
S'\x00\x00\x00\x00\x00\x00\x00\x00'
p2672
tp2673
Rp2674
sg37
g38
sS'trials_2.thisIndex'
p2675
g1853
sg23
g24
sg1836
g2004
sg1839
g26
(g185
S'\x90\x01\x00\x00\x00\x00\x00\x00'
p2676
tp2677
Rp2678
sS'trials.thisIndex'
p2679
g26
(g135
S'P\x00\x00\x00'
p2680
tp2681
Rp2682
sg39
g44
sS'trials_2.thisRepN'
p2683
I0
sS'trials_2.thisTrialN'
p2684
I0
sS'trials.thisRepN'
p2685
I0
sS'trials.thisN'
p2686
I33
sg59
g156
sg36
g12
sS'trials.thisTrialN'
p2687
I33
sg1840
g1670
sg1837
g26
(g185
S'\x00\x00\x00\x00\x00\x00\x00\x00'
p2688
tp2689
Rp2690
sS'trials_2.thisN'
p2691
I0
sa(dp2692
g19
(lp2693
F0.43429908898542635
asg18
I0
sg25
g35
sg17
(lp2694
S'a'
p2695
asg56
g154
sg1838
g26
(g185
S'\x00\x00\x00\x00\x00\x00\x00\x00'
p2696
tp2697
Rp2698
sg37
g38
sS'trials_2.thisIndex'
p2699
g1853
sg23
g24
sg1836
g2004
sg1839
g26
(g185
S'\x90\x01\x00\x00\x00\x00\x00\x00'
p2700
tp2701
Rp2702
sS'trials.thisIndex'
p2703
g26
(g135
S'T\x00\x00\x00'
p2704
tp2705
Rp2706
sg39
g44
sS'trials_2.thisRepN'
p2707
I0
sS'trials_2.thisTrialN'
p2708
I0
sS'trials.thisRepN'
p2709
I0
sS'trials.thisN'
p2710
I34
sg59
g156
sg36
g12
sS'trials.thisTrialN'
p2711
I34
sg1840
g1670
sg1837
g26
(g185
S'\x00\x00\x00\x00\x00\x00\x00\x00'
p2712
tp2713
Rp2714
sS'trials_2.thisN'
p2715
I0
sa(dp2716
g19
(lp2717
F1.0172916745723342
asg18
I0
sg25
g35
sg17
(lp2718
S'l'
p2719
asg56
g154
sg1838
g26
(g185
S'\x00\x00\x00\x00\x00\x00\x00\x00'
p2720
tp2721
Rp2722
sg37
g38
sS'trials_2.thisIndex'
p2723
g1853
sg23
g24
sg1836
Vfrogs/ab60.jpg
p2724
sg1839
g26
(g185
S'\x90\x01\x00\x00\x00\x00\x00\x00'
p2725
tp2726
Rp2727
sS'trials.thisIndex'
p2728
g26
(g135
S':\x00\x00\x00'
p2729
tp2730
Rp2731
sg39
g44
sS'trials_2.thisRepN'
p2732
I0
sS'trials_2.thisTrialN'
p2733
I0
sS'trials.thisRepN'
p2734
I0
sS'trials.thisN'
p2735
I35
sg59
g156
sg36
g12
sS'trials.thisTrialN'
p2736
I35
sg1840
g203
sg1837
g26
(g185
S'\x00\x00\x00\x00\x00\x00\x00\x00'
p2737
tp2738
Rp2739
sS'trials_2.thisN'
p2740
I0
sa(dp2741
g19
(lp2742
F0.3348557837161934
asg18
I0
sg25
g35
sg17
(lp2743
S'l'
p2744
asg56
g154
sg1838
g26
(g185
S'\x00\x00\x00\x00\x00\x00\x00\x00'
p2745
tp2746
Rp2747
sg37
g38
sS'trials_2.thisIndex'
p2748
g1853
sg23
g24
sg1836
Vfrogs/ab52.jpg
p2749
sg1839
g26
(g185
S'\x90\x01\x00\x00\x00\x00\x00\x00'
p2750
tp2751
Rp2752
sS'trials.thisIndex'
p2753
g26
(g135
S'3\x00\x00\x00'
p2754
tp2755
Rp2756
sg39
g44
sS'trials_2.thisRepN'
p2757
I0
sS'trials_2.thisTrialN'
p2758
I0
sS'trials.thisRepN'
p2759
I0
sS'trials.thisN'
p2760
I36
sg59
g156
sg36
g12
sS'trials.thisTrialN'
p2761
I36
sg1840
g203
sg1837
g26
(g185
S'\x00\x00\x00\x00\x00\x00\x00\x00'
p2762
tp2763
Rp2764
sS'trials_2.thisN'
p2765
I0
sa(dp2766
g19
(lp2767
F2.1935637610658887
asg18
I0
sg25
g35
sg17
(lp2768
S'l'
p2769
asg56
g154
sg1838
g26
(g185
S'\x00\x00\x00\x00\x00\x00\x00\x00'
p2770
tp2771
Rp2772
sg37
g38
sS'trials_2.thisIndex'
p2773
g1853
sg23
g24
sg1836
Vfrogs/ab74.jpg
p2774
sg1839
g26
(g185
S'\x90\x01\x00\x00\x00\x00\x00\x00'
p2775
tp2776
Rp2777
sS'trials.thisIndex'
p2778
g26
(g135
S'H\x00\x00\x00'
p2779
tp2780
Rp2781
sg39
g44
sS'trials_2.thisRepN'
p2782
I0
sS'trials_2.thisTrialN'
p2783
I0
sS'trials.thisRepN'
p2784
I0
sS'trials.thisN'
p2785
I37
sg59
g156
sg36
g12
sS'trials.thisTrialN'
p2786
I37
sg1840
g203
sg1837
g26
(g185
S'\x00\x00\x00\x00\x00\x00\x00\x00'
p2787
tp2788
Rp2789
sS'trials_2.thisN'
p2790
I0
sa(dp2791
g19
(lp2792
F0.2679466554764076
asg18
I0
sg25
g35
sg17
(lp2793
S'a'
p2794
asg56
g154
sg1838
g26
(g185
S'\x00\x00\x00\x00\x00\x00\x00\x00'
p2795
tp2796
Rp2797
sg37
g38
sS'trials_2.thisIndex'
p2798
g1853
sg23
g24
sg1836
g2004
sg1839
g26
(g185
S'\x90\x01\x00\x00\x00\x00\x00\x00'
p2799
tp2800
Rp2801
sS'trials.thisIndex'
p2802
g26
(g135
S'S\x00\x00\x00'
p2803
tp2804
Rp2805
sg39
g44
sS'trials_2.thisRepN'
p2806
I0
sS'trials_2.thisTrialN'
p2807
I0
sS'trials.thisRepN'
p2808
I0
sS'trials.thisN'
p2809
I38
sg59
g156
sg36
g12
sS'trials.thisTrialN'
p2810
I38
sg1840
g1670
sg1837
g26
(g185
S'\x00\x00\x00\x00\x00\x00\x00\x00'
p2811
tp2812
Rp2813
sS'trials_2.thisN'
p2814
I0
sa(dp2815
g19
(lp2816
F0.5675657825777307
asg18
I0
sg25
g35
sg17
(lp2817
S'a'
p2818
asg56
g154
sg1838
g26
(g185
S'\x00\x00\x00\x00\x00\x00\x00\x00'
p2819
tp2820
Rp2821
sg37
g38
sS'trials_2.thisIndex'
p2822
g1853
sg23
g24
sg1836
g2004
sg1839
g26
(g185
S'\x90\x01\x00\x00\x00\x00\x00\x00'
p2823
tp2824
Rp2825
sS'trials.thisIndex'
p2826
g26
(g135
S'Q\x00\x00\x00'
p2827
tp2828
Rp2829
sg39
g44
sS'trials_2.thisRepN'
p2830
I0
sS'trials_2.thisTrialN'
p2831
I0
sS'trials.thisRepN'
p2832
I0
sS'trials.thisN'
p2833
I39
sg59
g156
sg36
g12
sS'trials.thisTrialN'
p2834
I39
sg1840
g1670
sg1837
g26
(g185
S'\x00\x00\x00\x00\x00\x00\x00\x00'
p2835
tp2836
Rp2837
sS'trials_2.thisN'
p2838
I0
sa(dp2839
g19
(lp2840
F1.134086897931411
asg18
I0
sg25
g35
sg17
(lp2841
S'l'
p2842
asg56
g154
sg1838
g26
(g185
S'\x00\x00\x00\x00\x00\x00\x00\x00'
p2843
tp2844
Rp2845
sg37
g38
sS'trials_2.thisIndex'
p2846
g1853
sg23
g24
sg1836
Vfrogs/ab57.jpg
p2847
sg1839
g26
(g185
S'\x90\x01\x00\x00\x00\x00\x00\x00'
p2848
tp2849
Rp2850
sS'trials.thisIndex'
p2851
g26
(g135
S'8\x00\x00\x00'
p2852
tp2853
Rp2854
sg39
g44
sS'trials_2.thisRepN'
p2855
I0
sS'trials_2.thisTrialN'
p2856
I0
sS'trials.thisRepN'
p2857
I0
sS'trials.thisN'
p2858
I40
sg59
g156
sg36
g12
sS'trials.thisTrialN'
p2859
I40
sg1840
g203
sg1837
g26
(g185
S'\x00\x00\x00\x00\x00\x00\x00\x00'
p2860
tp2861
Rp2862
sS'trials_2.thisN'
p2863
I0
sa(dp2864
g19
(lp2865
F0.39557410956331296
asg18
I0
sg25
g35
sg17
(lp2866
S'l'
p2867
asg56
g154
sg1838
g26
(g185
S'\x00\x00\x00\x00\x00\x00\x00\x00'
p2868
tp2869
Rp2870
sg37
g38
sS'trials_2.thisIndex'
p2871
g1853
sg23
g24
sg1836
Vfrogs/ab62.jpg
p2872
sg1839
g26
(g185
S'\x90\x01\x00\x00\x00\x00\x00\x00'
p2873
tp2874
Rp2875
sS'trials.thisIndex'
p2876
g26
(g135
S'<\x00\x00\x00'
p2877
tp2878
Rp2879
sg39
g44
sS'trials_2.thisRepN'
p2880
I0
sS'trials_2.thisTrialN'
p2881
I0
sS'trials.thisRepN'
p2882
I0
sS'trials.thisN'
p2883
I41
sg59
g156
sg36
g12
sS'trials.thisTrialN'
p2884
I41
sg1840
g203
sg1837
g26
(g185
S'\x00\x00\x00\x00\x00\x00\x00\x00'
p2885
tp2886
Rp2887
sS'trials_2.thisN'
p2888
I0
sa(dp2889
g19
(lp2890
F0.417539342364762
asg18
I0
sg25
g35
sg17
(lp2891
S'l'
p2892
asg56
g154
sg1838
g26
(g185
S'\x00\x00\x00\x00\x00\x00\x00\x00'
p2893
tp2894
Rp2895
sg37
g38
sS'trials_2.thisIndex'
p2896
g1853
sg23
g24
sg1836
Vfrogs/ab81.jpg
p2897
sg1839
g26
(g185
S'\x90\x01\x00\x00\x00\x00\x00\x00'
p2898
tp2899
Rp2900
sS'trials.thisIndex'
p2901
g26
(g135
S'O\x00\x00\x00'
p2902
tp2903
Rp2904
sg39
g44
sS'trials_2.thisRepN'
p2905
I0
sS'trials_2.thisTrialN'
p2906
I0
sS'trials.thisRepN'
p2907
I0
sS'trials.thisN'
p2908
I42
sg59
g156
sg36
g12
sS'trials.thisTrialN'
p2909
I42
sg1840
g203
sg1837
g26
(g185
S'\x00\x00\x00\x00\x00\x00\x00\x00'
p2910
tp2911
Rp2912
sS'trials_2.thisN'
p2913
I0
sa(dp2914
g19
(lp2915
F0.7507547174027422
asg18
I0
sg25
g35
sg17
(lp2916
S'l'
p2917
asg56
g154
sg1838
g26
(g185
S'\x00\x00\x00\x00\x00\x00\x00\x00'
p2918
tp2919
Rp2920
sg37
g38
sS'trials_2.thisIndex'
p2921
g1853
sg23
g24
sg1836
Vfrogs/ab55.jpg
p2922
sg1839
g26
(g185
S'\x90\x01\x00\x00\x00\x00\x00\x00'
p2923
tp2924
Rp2925
sS'trials.thisIndex'
p2926
g26
(g135
S'6\x00\x00\x00'
p2927
tp2928
Rp2929
sg39
g44
sS'trials_2.thisRepN'
p2930
I0
sS'trials_2.thisTrialN'
p2931
I0
sS'trials.thisRepN'
p2932
I0
sS'trials.thisN'
p2933
I43
sg59
g156
sg36
g12
sS'trials.thisTrialN'
p2934
I43
sg1840
g203
sg1837
g26
(g185
S'\x00\x00\x00\x00\x00\x00\x00\x00'
p2935
tp2936
Rp2937
sS'trials_2.thisN'
p2938
I0
sa(dp2939
g19
(lp2940
F1.0512342111833277
asg18
I0
sg25
g35
sg17
(lp2941
S'l'
p2942
asg56
g154
sg1838
g26
(g185
S'\x00\x00\x00\x00\x00\x00\x00\x00'
p2943
tp2944
Rp2945
sg37
g38
sS'trials_2.thisIndex'
p2946
g1853
sg23
g24
sg1836
Vfrogs/ab50.jpg
p2947
sg1839
g26
(g185
S'\x90\x01\x00\x00\x00\x00\x00\x00'
p2948
tp2949
Rp2950
sS'trials.thisIndex'
p2951
g26
(g135
S'1\x00\x00\x00'
p2952
tp2953
Rp2954
sg39
g44
sS'trials_2.thisRepN'
p2955
I0
sS'trials_2.thisTrialN'
p2956
I0
sS'trials.thisRepN'
p2957
I0
sS'trials.thisN'
p2958
I44
sg59
g156
sg36
g12
sS'trials.thisTrialN'
p2959
I44
sg1840
g203
sg1837
g26
(g185
S'\x00\x00\x00\x00\x00\x00\x00\x00'
p2960
tp2961
Rp2962
sS'trials_2.thisN'
p2963
I0
sa(dp2964
g19
(lp2965
F0.7340092507292866
asg18
I0
sg25
g35
sg17
(lp2966
S'l'
p2967
asg56
g154
sg1838
g26
(g185
S'\x00\x00\x00\x00\x00\x00\x00\x00'
p2968
tp2969
Rp2970
sg37
g38
sS'trials_2.thisIndex'
p2971
g1853
sg23
g24
sg1836
Vfrogs/ab8.jpg
p2972
sg1839
g26
(g185
S'\x90\x01\x00\x00\x00\x00\x00\x00'
p2973
tp2974
Rp2975
sS'trials.thisIndex'
p2976
g26
(g135
S'\x07\x00\x00\x00'
p2977
tp2978
Rp2979
sg39
g44
sS'trials_2.thisRepN'
p2980
I0
sS'trials_2.thisTrialN'
p2981
I0
sS'trials.thisRepN'
p2982
I0
sS'trials.thisN'
p2983
I45
sg59
g156
sg36
g12
sS'trials.thisTrialN'
p2984
I45
sg1840
g203
sg1837
g26
(g185
S'\x00\x00\x00\x00\x00\x00\x00\x00'
p2985
tp2986
Rp2987
sS'trials_2.thisN'
p2988
I0
sa(dp2989
g19
(lp2990
F0.3841858534797211
asg18
I0
sg25
g35
sg17
(lp2991
S'l'
p2992
asg56
g154
sg1838
g26
(g185
S'\x00\x00\x00\x00\x00\x00\x00\x00'
p2993
tp2994
Rp2995
sg37
g38
sS'trials_2.thisIndex'
p2996
g1853
sg23
g24
sg1836
Vfrogs/ab28.jpg
p2997
sg1839
g26
(g185
S'\x90\x01\x00\x00\x00\x00\x00\x00'
p2998
tp2999
Rp3000
sS'trials.thisIndex'
p3001
g26
(g135
S'\x1b\x00\x00\x00'
p3002
tp3003
Rp3004
sg39
g44
sS'trials_2.thisRepN'
p3005
I0
sS'trials_2.thisTrialN'
p3006
I0
sS'trials.thisRepN'
p3007
I0
sS'trials.thisN'
p3008
I46
sg59
g156
sg36
g12
sS'trials.thisTrialN'
p3009
I46
sg1840
g203
sg1837
g26
(g185
S'\x00\x00\x00\x00\x00\x00\x00\x00'
p3010
tp3011
Rp3012
sS'trials_2.thisN'
p3013
I0
sa(dp3014
g19
(lp3015
F0.6841865228561801
asg18
I0
sg25
g35
sg17
(lp3016
S'l'
p3017
asg56
g154
sg1838
g26
(g185
S'\x00\x00\x00\x00\x00\x00\x00\x00'
p3018
tp3019
Rp3020
sg37
g38
sS'trials_2.thisIndex'
p3021
g1853
sg23
g24
sg1836
Vfrogs/ab19.jpg
p3022
sg1839
g26
(g185
S'\x90\x01\x00\x00\x00\x00\x00\x00'
p3023
tp3024
Rp3025
sS'trials.thisIndex'
p3026
g26
(g135
S'\x12\x00\x00\x00'
p3027
tp3028
Rp3029
sg39
g44
sS'trials_2.thisRepN'
p3030
I0
sS'trials_2.thisTrialN'
p3031
I0
sS'trials.thisRepN'
p3032
I0
sS'trials.thisN'
p3033
I47
sg59
g156
sg36
g12
sS'trials.thisTrialN'
p3034
I47
sg1840
g203
sg1837
g26
(g185
S'\x00\x00\x00\x00\x00\x00\x00\x00'
p3035
tp3036
Rp3037
sS'trials_2.thisN'
p3038
I0
sa(dp3039
g19
(lp3040
F0.6341571820303216
asg18
I0
sg25
g35
sg17
(lp3041
S'l'
p3042
asg56
g154
sg1838
g26
(g185
S'\x00\x00\x00\x00\x00\x00\x00\x00'
p3043
tp3044
Rp3045
sg37
g38
sS'trials_2.thisIndex'
p3046
g1853
sg23
g24
sg1836
Vfrogs/ab51.jpg
p3047
sg1839
g26
(g185
S'\x90\x01\x00\x00\x00\x00\x00\x00'
p3048
tp3049
Rp3050
sS'trials.thisIndex'
p3051
g26
(g135
S'2\x00\x00\x00'
p3052
tp3053
Rp3054
sg39
g44
sS'trials_2.thisRepN'
p3055
I0
sS'trials_2.thisTrialN'
p3056
I0
sS'trials.thisRepN'
p3057
I0
sS'trials.thisN'
p3058
I48
sg59
g156
sg36
g12
sS'trials.thisTrialN'
p3059
I48
sg1840
g203
sg1837
g26
(g185
S'\x00\x00\x00\x00\x00\x00\x00\x00'
p3060
tp3061
Rp3062
sS'trials_2.thisN'
p3063
I0
sa(dp3064
g19
(lp3065
F0.35104165504162665
asg18
I0
sg25
g35
sg17
(lp3066
S'l'
p3067
asg56
g154
sg1838
g26
(g185
S'\x00\x00\x00\x00\x00\x00\x00\x00'
p3068
tp3069
Rp3070
sg37
g38
sS'trials_2.thisIndex'
p3071
g1853
sg23
g24
sg1836
Vfrogs/ab5.jpg
p3072
sg1839
g26
(g185
S'\x90\x01\x00\x00\x00\x00\x00\x00'
p3073
tp3074
Rp3075
sS'trials.thisIndex'
p3076
g26
(g135
S'\x04\x00\x00\x00'
p3077
tp3078
Rp3079
sg39
g44
sS'trials_2.thisRepN'
p3080
I0
sS'trials_2.thisTrialN'
p3081
I0
sS'trials.thisRepN'
p3082
I0
sS'trials.thisN'
p3083
I49
sg59
g156
sg36
g12
sS'trials.thisTrialN'
p3084
I49
sg1840
g203
sg1837
g26
(g185
S'\x00\x00\x00\x00\x00\x00\x00\x00'
p3085
tp3086
Rp3087
sS'trials_2.thisN'
p3088
I0
sa(dp3089
g19
(lp3090
F0.24293399318412412
asg18
I0
sg25
g35
sg17
(lp3091
S'l'
p3092
asg56
g154
sg1838
g26
(g185
S'\x00\x00\x00\x00\x00\x00\x00\x00'
p3093
tp3094
Rp3095
sg37
g38
sS'trials_2.thisIndex'
p3096
g1853
sg23
g24
sg1836
Vfrogs/ab2.jpg
p3097
sg1839
g26
(g185
S'\x90\x01\x00\x00\x00\x00\x00\x00'
p3098
tp3099
Rp3100
sS'trials.thisIndex'
p3101
g26
(g135
S'\x01\x00\x00\x00'
p3102
tp3103
Rp3104
sg39
g44
sS'trials_2.thisRepN'
p3105
I0
sS'trials_2.thisTrialN'
p3106
I0
sS'trials.thisRepN'
p3107
I0
sS'trials.thisN'
p3108
I50
sg59
g156
sg36
g12
sS'trials.thisTrialN'
p3109
I50
sg1840
g203
sg1837
g26
(g185
S'\x00\x00\x00\x00\x00\x00\x00\x00'
p3110
tp3111
Rp3112
sS'trials_2.thisN'
p3113
I0
sa(dp3114
g19
(lp3115
F0.8340996159968199
asg18
I0
sg25
g35
sg17
(lp3116
S'l'
p3117
asg56
g154
sg1838
g26
(g185
S'\x00\x00\x00\x00\x00\x00\x00\x00'
p3118
tp3119
Rp3120
sg37
g38
sS'trials_2.thisIndex'
p3121
g1853
sg23
g24
sg1836
Vfrogs/ab18.jpg
p3122
sg1839
g26
(g185
S'\x90\x01\x00\x00\x00\x00\x00\x00'
p3123
tp3124
Rp3125
sS'trials.thisIndex'
p3126
g26
(g135
S'\x11\x00\x00\x00'
p3127
tp3128
Rp3129
sg39
g44
sS'trials_2.thisRepN'
p3130
I0
sS'trials_2.thisTrialN'
p3131
I0
sS'trials.thisRepN'
p3132
I0
sS'trials.thisN'
p3133
I51
sg59
g156
sg36
g12
sS'trials.thisTrialN'
p3134
I51
sg1840
g203
sg1837
g26
(g185
S'\x00\x00\x00\x00\x00\x00\x00\x00'
p3135
tp3136
Rp3137
sS'trials_2.thisN'
p3138
I0
sa(dp3139
g19
(lp3140
F1.2344972232240252
asg18
I0
sg25
g35
sg17
(lp3141
S'l'
p3142
asg56
g154
sg1838
g26
(g185
S'\x00\x00\x00\x00\x00\x00\x00\x00'
p3143
tp3144
Rp3145
sg37
g38
sS'trials_2.thisIndex'
p3146
g1853
sg23
g24
sg1836
Vfrogs/ab26.jpg
p3147
sg1839
g26
(g185
S'\x90\x01\x00\x00\x00\x00\x00\x00'
p3148
tp3149
Rp3150
sS'trials.thisIndex'
p3151
g26
(g135
S'\x19\x00\x00\x00'
p3152
tp3153
Rp3154
sg39
g44
sS'trials_2.thisRepN'
p3155
I0
sS'trials_2.thisTrialN'
p3156
I0
sS'trials.thisRepN'
p3157
I0
sS'trials.thisN'
p3158
I52
sg59
g156
sg36
g12
sS'trials.thisTrialN'
p3159
I52
sg1840
g203
sg1837
g26
(g185
S'\x00\x00\x00\x00\x00\x00\x00\x00'
p3160
tp3161
Rp3162
sS'trials_2.thisN'
p3163
I0
sa(dp3164
g19
(lp3165
F0.6842097277622088
asg18
I0
sg25
g35
sg17
(lp3166
S'l'
p3167
asg56
g154
sg1838
g26
(g185
S'\x00\x00\x00\x00\x00\x00\x00\x00'
p3168
tp3169
Rp3170
sg37
g38
sS'trials_2.thisIndex'
p3171
g1853
sg23
g24
sg1836
Vfrogs/ab63.jpg
p3172
sg1839
g26
(g185
S'\x90\x01\x00\x00\x00\x00\x00\x00'
p3173
tp3174
Rp3175
sS'trials.thisIndex'
p3176
g26
(g135
S'=\x00\x00\x00'
p3177
tp3178
Rp3179
sg39
g44
sS'trials_2.thisRepN'
p3180
I0
sS'trials_2.thisTrialN'
p3181
I0
sS'trials.thisRepN'
p3182
I0
sS'trials.thisN'
p3183
I53
sg59
g156
sg36
g12
sS'trials.thisTrialN'
p3184
I53
sg1840
g203
sg1837
g26
(g185
S'\x00\x00\x00\x00\x00\x00\x00\x00'
p3185
tp3186
Rp3187
sS'trials_2.thisN'
p3188
I0
sa(dp3189
g19
(lp3190
F0.950827902124729
asg18
I0
sg25
g35
sg17
(lp3191
S'l'
p3192
asg56
g154
sg1838
g26
(g185
S'\x00\x00\x00\x00\x00\x00\x00\x00'
p3193
tp3194
Rp3195
sg37
g38
sS'trials_2.thisIndex'
p3196
g1853
sg23
g24
sg1836
Vfrogs/ab4.jpg
p3197
sg1839
g26
(g185
S'\x90\x01\x00\x00\x00\x00\x00\x00'
p3198
tp3199
Rp3200
sS'trials.thisIndex'
p3201
g26
(g135
S'\x03\x00\x00\x00'
p3202
tp3203
Rp3204
sg39
g44
sS'trials_2.thisRepN'
p3205
I0
sS'trials_2.thisTrialN'
p3206
I0
sS'trials.thisRepN'
p3207
I0
sS'trials.thisN'
p3208
I54
sg59
g156
sg36
g12
sS'trials.thisTrialN'
p3209
I54
sg1840
g203
sg1837
g26
(g185
S'\x00\x00\x00\x00\x00\x00\x00\x00'
p3210
tp3211
Rp3212
sS'trials_2.thisN'
p3213
I0
sa(dp3214
g19
(lp3215
F1.0339532465659431
asg18
I0
sg25
g35
sg17
(lp3216
S'l'
p3217
asg56
g154
sg1838
g26
(g185
S'\x00\x00\x00\x00\x00\x00\x00\x00'
p3218
tp3219
Rp3220
sg37
g38
sS'trials_2.thisIndex'
p3221
g1853
sg23
g24
sg1836
Vfrogs/ab6.jpg
p3222
sg1839
g26
(g185
S'\x90\x01\x00\x00\x00\x00\x00\x00'
p3223
tp3224
Rp3225
sS'trials.thisIndex'
p3226
g26
(g135
S'\x05\x00\x00\x00'
p3227
tp3228
Rp3229
sg39
g44
sS'trials_2.thisRepN'
p3230
I0
sS'trials_2.thisTrialN'
p3231
I0
sS'trials.thisRepN'
p3232
I0
sS'trials.thisN'
p3233
I55
sg59
g156
sg36
g12
sS'trials.thisTrialN'
p3234
I55
sg1840
g203
sg1837
g26
(g185
S'\x00\x00\x00\x00\x00\x00\x00\x00'
p3235
tp3236
Rp3237
sS'trials_2.thisN'
p3238
I0
sa(dp3239
g19
(lp3240
F0.7174918169184821
asg18
I0
sg25
g35
sg17
(lp3241
S'l'
p3242
asg56
g154
sg1838
g26
(g185
S'\x00\x00\x00\x00\x00\x00\x00\x00'
p3243
tp3244
Rp3245
sg37
g38
sS'trials_2.thisIndex'
p3246
g1853
sg23
g24
sg1836
Vfrogs/ab30.jpg
p3247
sg1839
g26
(g185
S'\x90\x01\x00\x00\x00\x00\x00\x00'
p3248
tp3249
Rp3250
sS'trials.thisIndex'
p3251
g26
(g135
S'\x1d\x00\x00\x00'
p3252
tp3253
Rp3254
sg39
g44
sS'trials_2.thisRepN'
p3255
I0
sS'trials_2.thisTrialN'
p3256
I0
sS'trials.thisRepN'
p3257
I0
sS'trials.thisN'
p3258
I56
sg59
g156
sg36
g12
sS'trials.thisTrialN'
p3259
I56
sg1840
g203
sg1837
g26
(g185
S'\x00\x00\x00\x00\x00\x00\x00\x00'
p3260
tp3261
Rp3262
sS'trials_2.thisN'
p3263
I0
sa(dp3264
g19
(lp3265
F1.0006943623229745
asg18
I0
sg25
g35
sg17
(lp3266
S'l'
p3267
asg56
g154
sg1838
g26
(g185
S'\x00\x00\x00\x00\x00\x00\x00\x00'
p3268
tp3269
Rp3270
sg37
g38
sS'trials_2.thisIndex'
p3271
g1853
sg23
g24
sg1836
Vfrogs/ab10.jpg
p3272
sg1839
g26
(g185
S'\x90\x01\x00\x00\x00\x00\x00\x00'
p3273
tp3274
Rp3275
sS'trials.thisIndex'
p3276
g26
(g135
S'\t\x00\x00\x00'
p3277
tp3278
Rp3279
sg39
g44
sS'trials_2.thisRepN'
p3280
I0
sS'trials_2.thisTrialN'
p3281
I0
sS'trials.thisRepN'
p3282
I0
sS'trials.thisN'
p3283
I57
sg59
g156
sg36
g12
sS'trials.thisTrialN'
p3284
I57
sg1840
g203
sg1837
g26
(g185
S'\x00\x00\x00\x00\x00\x00\x00\x00'
p3285
tp3286
Rp3287
sS'trials_2.thisN'
p3288
I0
sa(dp3289
g19
(lp3290
F0.36833511460281443
asg18
I0
sg25
g35
sg17
(lp3291
S'l'
p3292
asg56
g154
sg1838
g26
(g185
S'\x00\x00\x00\x00\x00\x00\x00\x00'
p3293
tp3294
Rp3295
sg37
g38
sS'trials_2.thisIndex'
p3296
g1853
sg23
g24
sg1836
Vfrogs/ab31.jpg
p3297
sg1839
g26
(g185
S'\x90\x01\x00\x00\x00\x00\x00\x00'
p3298
tp3299
Rp3300
sS'trials.thisIndex'
p3301
g26
(g135
S'\x1e\x00\x00\x00'
p3302
tp3303
Rp3304
sg39
g44
sS'trials_2.thisRepN'
p3305
I0
sS'trials_2.thisTrialN'
p3306
I0
sS'trials.thisRepN'
p3307
I0
sS'trials.thisN'
p3308
I58
sg59
g156
sg36
g12
sS'trials.thisTrialN'
p3309
I58
sg1840
g203
sg1837
g26
(g185
S'\x00\x00\x00\x00\x00\x00\x00\x00'
p3310
tp3311
Rp3312
sS'trials_2.thisN'
p3313
I0
sa(dp3314
g19
(lp3315
F0.4509936833565007
asg18
I0
sg25
g35
sg17
(lp3316
S'l'
p3317
asg56
g154
sg1838
g26
(g185
S'\x00\x00\x00\x00\x00\x00\x00\x00'
p3318
tp3319
Rp3320
sg37
g38
sS'trials_2.thisIndex'
p3321
g1853
sg23
g24
sg1836
Vfrogs/ab22.jpg
p3322
sg1839
g26
(g185
S'\x90\x01\x00\x00\x00\x00\x00\x00'
p3323
tp3324
Rp3325
sS'trials.thisIndex'
p3326
g26
(g135
S'\x15\x00\x00\x00'
p3327
tp3328
Rp3329
sg39
g44
sS'trials_2.thisRepN'
p3330
I0
sS'trials_2.thisTrialN'
p3331
I0
sS'trials.thisRepN'
p3332
I0
sS'trials.thisN'
p3333
I59
sg59
g156
sg36
g12
sS'trials.thisTrialN'
p3334
I59
sg1840
g203
sg1837
g26
(g185
S'\x00\x00\x00\x00\x00\x00\x00\x00'
p3335
tp3336
Rp3337
sS'trials_2.thisN'
p3338
I0
sa(dp3339
g19
(lp3340
F0.28444266937003704
asg18
I0
sg25
g35
sg17
(lp3341
S'l'
p3342
asg56
g154
sg1838
g26
(g185
S'\x00\x00\x00\x00\x00\x00\x00\x00'
p3343
tp3344
Rp3345
sg37
g38
sS'trials_2.thisIndex'
p3346
g1853
sg23
g24
sg1836
Vfrogs/ab24.jpg
p3347
sg1839
g26
(g185
S'\x90\x01\x00\x00\x00\x00\x00\x00'
p3348
tp3349
Rp3350
sS'trials.thisIndex'
p3351
g26
(g135
S'\x17\x00\x00\x00'
p3352
tp3353
Rp3354
sg39
g44
sS'trials_2.thisRepN'
p3355
I0
sS'trials_2.thisTrialN'
p3356
I0
sS'trials.thisRepN'
p3357
I0
sS'trials.thisN'
p3358
I60
sg59
g156
sg36
g12
sS'trials.thisTrialN'
p3359
I60
sg1840
g203
sg1837
g26
(g185
S'\x00\x00\x00\x00\x00\x00\x00\x00'
p3360
tp3361
Rp3362
sS'trials_2.thisN'
p3363
I0
sa(dp3364
g19
(lp3365
F0.383698550365807
asg18
I0
sg25
g35
sg17
(lp3366
S'l'
p3367
asg56
g154
sg1838
g26
(g185
S'\x00\x00\x00\x00\x00\x00\x00\x00'
p3368
tp3369
Rp3370
sg37
g38
sS'trials_2.thisIndex'
p3371
g1853
sg23
g24
sg1836
Vfrogs/ab61.jpg
p3372
sg1839
g26
(g185
S'\x90\x01\x00\x00\x00\x00\x00\x00'
p3373
tp3374
Rp3375
sS'trials.thisIndex'
p3376
g26
(g135
S';\x00\x00\x00'
p3377
tp3378
Rp3379
sg39
g44
sS'trials_2.thisRepN'
p3380
I0
sS'trials_2.thisTrialN'
p3381
I0
sS'trials.thisRepN'
p3382
I0
sS'trials.thisN'
p3383
I61
sg59
g156
sg36
g12
sS'trials.thisTrialN'
p3384
I61
sg1840
g203
sg1837
g26
(g185
S'\x00\x00\x00\x00\x00\x00\x00\x00'
p3385
tp3386
Rp3387
sS'trials_2.thisN'
p3388
I0
sa(dp3389
g19
(lp3390
F1.1008721922626137
asg18
I0
sg25
g35
sg17
(lp3391
S'l'
p3392
asg56
g154
sg1838
g26
(g185
S'\x00\x00\x00\x00\x00\x00\x00\x00'
p3393
tp3394
Rp3395
sg37
g38
sS'trials_2.thisIndex'
p3396
g1853
sg23
g24
sg1836
Vfrogs/ab44.jpg
p3397
sg1839
g26
(g185
S'\x90\x01\x00\x00\x00\x00\x00\x00'
p3398
tp3399
Rp3400
sS'trials.thisIndex'
p3401
g26
(g135
S'+\x00\x00\x00'
p3402
tp3403
Rp3404
sg39
g44
sS'trials_2.thisRepN'
p3405
I0
sS'trials_2.thisTrialN'
p3406
I0
sS'trials.thisRepN'
p3407
I0
sS'trials.thisN'
p3408
I62
sg59
g156
sg36
g12
sS'trials.thisTrialN'
p3409
I62
sg1840
g203
sg1837
g26
(g185
S'\x00\x00\x00\x00\x00\x00\x00\x00'
p3410
tp3411
Rp3412
sS'trials_2.thisN'
p3413
I0
sa(dp3414
g19
(lp3415
F0.9179666250929586
asg18
I0
sg25
g35
sg17
(lp3416
S'l'
p3417
asg56
g154
sg1838
g26
(g185
S'\x00\x00\x00\x00\x00\x00\x00\x00'
p3418
tp3419
Rp3420
sg37
g38
sS'trials_2.thisIndex'
p3421
g1853
sg23
g24
sg1836
Vfrogs/ab75.jpg
p3422
sg1839
g26
(g185
S'\x90\x01\x00\x00\x00\x00\x00\x00'
p3423
tp3424
Rp3425
sS'trials.thisIndex'
p3426
g26
(g135
S'I\x00\x00\x00'
p3427
tp3428
Rp3429
sg39
g44
sS'trials_2.thisRepN'
p3430
I0
sS'trials_2.thisTrialN'
p3431
I0
sS'trials.thisRepN'
p3432
I0
sS'trials.thisN'
p3433
I63
sg59
g156
sg36
g12
sS'trials.thisTrialN'
p3434
I63
sg1840
g203
sg1837
g26
(g185
S'\x00\x00\x00\x00\x00\x00\x00\x00'
p3435
tp3436
Rp3437
sS'trials_2.thisN'
p3438
I0
sa(dp3439
g19
(lp3440
F0.5176475575717632
asg18
I0
sg25
g35
sg17
(lp3441
S'l'
p3442
asg56
g154
sg1838
g26
(g185
S'\x00\x00\x00\x00\x00\x00\x00\x00'
p3443
tp3444
Rp3445
sg37
g38
sS'trials_2.thisIndex'
p3446
g1853
sg23
g24
sg1836
Vfrogs/ab37.jpg
p3447
sg1839
g26
(g185
S'\x90\x01\x00\x00\x00\x00\x00\x00'
p3448
tp3449
Rp3450
sS'trials.thisIndex'
p3451
g26
(g135
S'$\x00\x00\x00'
p3452
tp3453
Rp3454
sg39
g44
sS'trials_2.thisRepN'
p3455
I0
sS'trials_2.thisTrialN'
p3456
I0
sS'trials.thisRepN'
p3457
I0
sS'trials.thisN'
p3458
I64
sg59
g156
sg36
g12
sS'trials.thisTrialN'
p3459
I64
sg1840
g203
sg1837
g26
(g185
S'\x00\x00\x00\x00\x00\x00\x00\x00'
p3460
tp3461
Rp3462
sS'trials_2.thisN'
p3463
I0
sa(dp3464
g19
(lp3465
F0.5175882065523183
asg18
I0
sg25
g35
sg17
(lp3466
S'l'
p3467
asg56
g154
sg1838
g26
(g185
S'\x00\x00\x00\x00\x00\x00\x00\x00'
p3468
tp3469
Rp3470
sg37
g38
sS'trials_2.thisIndex'
p3471
g1853
sg23
g24
sg1836
Vfrogs/ab71.jpg
p3472
sg1839
g26
(g185
S'\x90\x01\x00\x00\x00\x00\x00\x00'
p3473
tp3474
Rp3475
sS'trials.thisIndex'
p3476
g26
(g135
S'E\x00\x00\x00'
p3477
tp3478
Rp3479
sg39
g44
sS'trials_2.thisRepN'
p3480
I0
sS'trials_2.thisTrialN'
p3481
I0
sS'trials.thisRepN'
p3482
I0
sS'trials.thisN'
p3483
I65
sg59
g156
sg36
g12
sS'trials.thisTrialN'
p3484
I65
sg1840
g203
sg1837
g26
(g185
S'\x00\x00\x00\x00\x00\x00\x00\x00'
p3485
tp3486
Rp3487
sS'trials_2.thisN'
p3488
I0
sa(dp3489
g19
(lp3490
F0.4513292620613356
asg18
I0
sg25
g35
sg17
(lp3491
S'l'
p3492
asg56
g154
sg1838
g26
(g185
S'\x00\x00\x00\x00\x00\x00\x00\x00'
p3493
tp3494
Rp3495
sg37
g38
sS'trials_2.thisIndex'
p3496
g1853
sg23
g24
sg1836
Vfrogs/ab80.jpg
p3497
sg1839
g26
(g185
S'\x90\x01\x00\x00\x00\x00\x00\x00'
p3498
tp3499
Rp3500
sS'trials.thisIndex'
p3501
g26
(g135
S'N\x00\x00\x00'
p3502
tp3503
Rp3504
sg39
g44
sS'trials_2.thisRepN'
p3505
I0
sS'trials_2.thisTrialN'
p3506
I0
sS'trials.thisRepN'
p3507
I0
sS'trials.thisN'
p3508
I66
sg59
g156
sg36
g12
sS'trials.thisTrialN'
p3509
I66
sg1840
g203
sg1837
g26
(g185
S'\x00\x00\x00\x00\x00\x00\x00\x00'
p3510
tp3511
Rp3512
sS'trials_2.thisN'
p3513
I0
sa(dp3514
g19
(lp3515
F0.5176131964544766
asg18
I0
sg25
g35
sg17
(lp3516
S'a'
p3517
asg56
g154
sg1838
g26
(g185
S'\x00\x00\x00\x00\x00\x00\x00\x00'
p3518
tp3519
Rp3520
sg37
g38
sS'trials_2.thisIndex'
p3521
g1853
sg23
g24
sg1836
g2004
sg1839
g26
(g185
S'\x90\x01\x00\x00\x00\x00\x00\x00'
p3522
tp3523
Rp3524
sS'trials.thisIndex'
p3525
g26
(g135
S'W\x00\x00\x00'
p3526
tp3527
Rp3528
sg39
g44
sS'trials_2.thisRepN'
p3529
I0
sS'trials_2.thisTrialN'
p3530
I0
sS'trials.thisRepN'
p3531
I0
sS'trials.thisN'
p3532
I67
sg59
g156
sg36
g12
sS'trials.thisTrialN'
p3533
I67
sg1840
g1670
sg1837
g26
(g185
S'\x00\x00\x00\x00\x00\x00\x00\x00'
p3534
tp3535
Rp3536
sS'trials_2.thisN'
p3537
I0
sa(dp3538
g19
(lp3539
F0.3178363205952337
asg18
I0
sg25
g35
sg17
(lp3540
S'l'
p3541
asg56
g154
sg1838
g26
(g185
S'\x00\x00\x00\x00\x00\x00\x00\x00'
p3542
tp3543
Rp3544
sg37
g38
sS'trials_2.thisIndex'
p3545
g1853
sg23
g24
sg1836
Vfrogs/ab79.jpg
p3546
sg1839
g26
(g185
S'\x90\x01\x00\x00\x00\x00\x00\x00'
p3547
tp3548
Rp3549
sS'trials.thisIndex'
p3550
g26
(g135
S'M\x00\x00\x00'
p3551
tp3552
Rp3553
sg39
g44
sS'trials_2.thisRepN'
p3554
I0
sS'trials_2.thisTrialN'
p3555
I0
sS'trials.thisRepN'
p3556
I0
sS'trials.thisN'
p3557
I68
sg59
g156
sg36
g12
sS'trials.thisTrialN'
p3558
I68
sg1840
g203
sg1837
g26
(g185
S'\x00\x00\x00\x00\x00\x00\x00\x00'
p3559
tp3560
Rp3561
sS'trials_2.thisN'
p3562
I0
sa(dp3563
g19
(lp3564
F0.38437372400949243
asg18
I0
sg25
g35
sg17
(lp3565
S'l'
p3566
asg56
g154
sg1838
g26
(g185
S'\x00\x00\x00\x00\x00\x00\x00\x00'
p3567
tp3568
Rp3569
sg37
g38
sS'trials_2.thisIndex'
p3570
g1853
sg23
g24
sg1836
Vfrogs/ab73.jpg
p3571
sg1839
g26
(g185
S'\x90\x01\x00\x00\x00\x00\x00\x00'
p3572
tp3573
Rp3574
sS'trials.thisIndex'
p3575
g26
(g135
S'G\x00\x00\x00'
p3576
tp3577
Rp3578
sg39
g44
sS'trials_2.thisRepN'
p3579
I0
sS'trials_2.thisTrialN'
p3580
I0
sS'trials.thisRepN'
p3581
I0
sS'trials.thisN'
p3582
I69
sg59
g156
sg36
g12
sS'trials.thisTrialN'
p3583
I69
sg1840
g203
sg1837
g26
(g185
S'\x00\x00\x00\x00\x00\x00\x00\x00'
p3584
tp3585
Rp3586
sS'trials_2.thisN'
p3587
I0
sa(dp3588
g19
(lp3589
F0.9508015734681976
asg18
I0
sg25
g35
sg17
(lp3590
S'l'
p3591
asg56
g154
sg1838
g26
(g185
S'\x00\x00\x00\x00\x00\x00\x00\x00'
p3592
tp3593
Rp3594
sg37
g38
sS'trials_2.thisIndex'
p3595
g1853
sg23
g24
sg1836
Vfrogs/ab67.jpg
p3596
sg1839
g26
(g185
S'\x90\x01\x00\x00\x00\x00\x00\x00'
p3597
tp3598
Rp3599
sS'trials.thisIndex'
p3600
g26
(g135
S'A\x00\x00\x00'
p3601
tp3602
Rp3603
sg39
g44
sS'trials_2.thisRepN'
p3604
I0
sS'trials_2.thisTrialN'
p3605
I0
sS'trials.thisRepN'
p3606
I0
sS'trials.thisN'
p3607
I70
sg59
g156
sg36
g12
sS'trials.thisTrialN'
p3608
I70
sg1840
g203
sg1837
g26
(g185
S'\x00\x00\x00\x00\x00\x00\x00\x00'
p3609
tp3610
Rp3611
sS'trials_2.thisN'
p3612
I0
sa(dp3613
g19
(lp3614
F0.4842512288596481
asg18
I0
sg25
g35
sg17
(lp3615
S'a'
p3616
asg56
g154
sg1838
g26
(g185
S'\x00\x00\x00\x00\x00\x00\x00\x00'
p3617
tp3618
Rp3619
sg37
g38
sS'trials_2.thisIndex'
p3620
g1853
sg23
g24
sg1836
g2004
sg1839
g26
(g185
S'\x90\x01\x00\x00\x00\x00\x00\x00'
p3621
tp3622
Rp3623
sS'trials.thisIndex'
p3624
g26
(g135
S'V\x00\x00\x00'
p3625
tp3626
Rp3627
sg39
g44
sS'trials_2.thisRepN'
p3628
I0
sS'trials_2.thisTrialN'
p3629
I0
sS'trials.thisRepN'
p3630
I0
sS'trials.thisN'
p3631
I71
sg59
g156
sg36
g12
sS'trials.thisTrialN'
p3632
I71
sg1840
g1670
sg1837
g26
(g185
S'\x00\x00\x00\x00\x00\x00\x00\x00'
p3633
tp3634
Rp3635
sS'trials_2.thisN'
p3636
I0
sa(dp3637
g19
(lp3638
F0.4008755391187151
asg18
I0
sg25
g35
sg17
(lp3639
S'l'
p3640
asg56
g154
sg1838
g26
(g185
S'\x00\x00\x00\x00\x00\x00\x00\x00'
p3641
tp3642
Rp3643
sg37
g38
sS'trials_2.thisIndex'
p3644
g1853
sg23
g24
sg1836
Vfrogs/ab12.jpg
p3645
sg1839
g26
(g185
S'\x90\x01\x00\x00\x00\x00\x00\x00'
p3646
tp3647
Rp3648
sS'trials.thisIndex'
p3649
g26
(g135
S'\x0b\x00\x00\x00'
p3650
tp3651
Rp3652
sg39
g44
sS'trials_2.thisRepN'
p3653
I0
sS'trials_2.thisTrialN'
p3654
I0
sS'trials.thisRepN'
p3655
I0
sS'trials.thisN'
p3656
I72
sg59
g156
sg36
g12
sS'trials.thisTrialN'
p3657
I72
sg1840
g203
sg1837
g26
(g185
S'\x00\x00\x00\x00\x00\x00\x00\x00'
p3658
tp3659
Rp3660
sS'trials_2.thisN'
p3661
I0
sa(dp3662
g19
(lp3663
F0.35084262831514934
asg18
I0
sg25
g35
sg17
(lp3664
S'l'
p3665
asg56
g154
sg1838
g26
(g185
S'\x00\x00\x00\x00\x00\x00\x00\x00'
p3666
tp3667
Rp3668
sg37
g38
sS'trials_2.thisIndex'
p3669
g1853
sg23
g24
sg1836
Vfrogs/ab39.jpg
p3670
sg1839
g26
(g185
S'\x90\x01\x00\x00\x00\x00\x00\x00'
p3671
tp3672
Rp3673
sS'trials.thisIndex'
p3674
g26
(g135
S'&\x00\x00\x00'
p3675
tp3676
Rp3677
sg39
g44
sS'trials_2.thisRepN'
p3678
I0
sS'trials_2.thisTrialN'
p3679
I0
sS'trials.thisRepN'
p3680
I0
sS'trials.thisN'
p3681
I73
sg59
g156
sg36
g12
sS'trials.thisTrialN'
p3682
I73
sg1840
g203
sg1837
g26
(g185
S'\x00\x00\x00\x00\x00\x00\x00\x00'
p3683
tp3684
Rp3685
sS'trials_2.thisN'
p3686
I0
sa(dp3687
g19
(lp3688
F0.2837844531532028
asg18
I0
sg25
g35
sg17
(lp3689
S'l'
p3690
asg56
g154
sg1838
g26
(g185
S'\x00\x00\x00\x00\x00\x00\x00\x00'
p3691
tp3692
Rp3693
sg37
g38
sS'trials_2.thisIndex'
p3694
g1853
sg23
g24
sg1836
Vfrogs/ab47.jpg
p3695
sg1839
g26
(g185
S'\x90\x01\x00\x00\x00\x00\x00\x00'
p3696
tp3697
Rp3698
sS'trials.thisIndex'
p3699
g26
(g135
S'.\x00\x00\x00'
p3700
tp3701
Rp3702
sg39
g44
sS'trials_2.thisRepN'
p3703
I0
sS'trials_2.thisTrialN'
p3704
I0
sS'trials.thisRepN'
p3705
I0
sS'trials.thisN'
p3706
I74
sg59
g156
sg36
g12
sS'trials.thisTrialN'
p3707
I74
sg1840
g203
sg1837
g26
(g185
S'\x00\x00\x00\x00\x00\x00\x00\x00'
p3708
tp3709
Rp3710
sS'trials_2.thisN'
p3711
I0
sa(dp3712
g19
(lp3713
F0.6174085916136391
asg18
I0
sg25
g35
sg17
(lp3714
S'l'
p3715
asg56
g154
sg1838
g26
(g185
S'\x00\x00\x00\x00\x00\x00\x00\x00'
p3716
tp3717
Rp3718
sg37
g38
sS'trials_2.thisIndex'
p3719
g1853
sg23
g24
sg1836
Vfrogs/ab35.jpg
p3720
sg1839
g26
(g185
S'\x90\x01\x00\x00\x00\x00\x00\x00'
p3721
tp3722
Rp3723
sS'trials.thisIndex'
p3724
g26
(g135
S'"\x00\x00\x00'
p3725
tp3726
Rp3727
sg39
g44
sS'trials_2.thisRepN'
p3728
I0
sS'trials_2.thisTrialN'
p3729
I0
sS'trials.thisRepN'
p3730
I0
sS'trials.thisN'
p3731
I75
sg59
g156
sg36
g12
sS'trials.thisTrialN'
p3732
I75
sg1840
g203
sg1837
g26
(g185
S'\x00\x00\x00\x00\x00\x00\x00\x00'
p3733
tp3734
Rp3735
sS'trials_2.thisN'
p3736
I0
sa(dp3737
g19
(lp3738
F0.4675347683223663
asg18
I0
sg25
g35
sg17
(lp3739
S'l'
p3740
asg56
g154
sg1838
g26
(g185
S'\x00\x00\x00\x00\x00\x00\x00\x00'
p3741
tp3742
Rp3743
sg37
g38
sS'trials_2.thisIndex'
p3744
g1853
sg23
g24
sg1836
Vfrogs/ab27.jpg
p3745
sg1839
g26
(g185
S'\x90\x01\x00\x00\x00\x00\x00\x00'
p3746
tp3747
Rp3748
sS'trials.thisIndex'
p3749
g26
(g135
S'\x1a\x00\x00\x00'
p3750
tp3751
Rp3752
sg39
g44
sS'trials_2.thisRepN'
p3753
I0
sS'trials_2.thisTrialN'
p3754
I0
sS'trials.thisRepN'
p3755
I0
sS'trials.thisN'
p3756
I76
sg59
g156
sg36
g12
sS'trials.thisTrialN'
p3757
I76
sg1840
g203
sg1837
g26
(g185
S'\x00\x00\x00\x00\x00\x00\x00\x00'
p3758
tp3759
Rp3760
sS'trials_2.thisN'
p3761
I0
sa(dp3762
g19
(lp3763
F0.5675729225476971
asg18
I0
sg25
g35
sg17
(lp3764
S'l'
p3765
asg56
g154
sg1838
g26
(g185
S'\x00\x00\x00\x00\x00\x00\x00\x00'
p3766
tp3767
Rp3768
sg37
g38
sS'trials_2.thisIndex'
p3769
g1853
sg23
g24
sg1836
Vfrogs/ab45.jpg
p3770
sg1839
g26
(g185
S'\x90\x01\x00\x00\x00\x00\x00\x00'
p3771
tp3772
Rp3773
sS'trials.thisIndex'
p3774
g26
(g135
S',\x00\x00\x00'
p3775
tp3776
Rp3777
sg39
g44
sS'trials_2.thisRepN'
p3778
I0
sS'trials_2.thisTrialN'
p3779
I0
sS'trials.thisRepN'
p3780
I0
sS'trials.thisN'
p3781
I77
sg59
g156
sg36
g12
sS'trials.thisTrialN'
p3782
I77
sg1840
g203
sg1837
g26
(g185
S'\x00\x00\x00\x00\x00\x00\x00\x00'
p3783
tp3784
Rp3785
sS'trials_2.thisN'
p3786
I0
sa(dp3787
g19
(lp3788
F0.6336011566745583
asg18
I0
sg25
g35
sg17
(lp3789
S'l'
p3790
asg56
g154
sg1838
g26
(g185
S'\x00\x00\x00\x00\x00\x00\x00\x00'
p3791
tp3792
Rp3793
sg37
g38
sS'trials_2.thisIndex'
p3794
g1853
sg23
g24
sg1836
Vfrogs/ab11.jpg
p3795
sg1839
g26
(g185
S'\x90\x01\x00\x00\x00\x00\x00\x00'
p3796
tp3797
Rp3798
sS'trials.thisIndex'
p3799
g26
(g135
S'\n\x00\x00\x00'
p3800
tp3801
Rp3802
sg39
g44
sS'trials_2.thisRepN'
p3803
I0
sS'trials_2.thisTrialN'
p3804
I0
sS'trials.thisRepN'
p3805
I0
sS'trials.thisN'
p3806
I78
sg59
g156
sg36
g12
sS'trials.thisTrialN'
p3807
I78
sg1840
g203
sg1837
g26
(g185
S'\x00\x00\x00\x00\x00\x00\x00\x00'
p3808
tp3809
Rp3810
sS'trials_2.thisN'
p3811
I0
sa(dp3812
g19
(lp3813
F0.21809804521035403
asg18
I0
sg25
g35
sg17
(lp3814
S'l'
p3815
asg56
g154
sg1838
g26
(g185
S'\x00\x00\x00\x00\x00\x00\x00\x00'
p3816
tp3817
Rp3818
sg37
g38
sS'trials_2.thisIndex'
p3819
g1853
sg23
g24
sg1836
Vfrogs/ab13.jpg
p3820
sg1839
g26
(g185
S'\x90\x01\x00\x00\x00\x00\x00\x00'
p3821
tp3822
Rp3823
sS'trials.thisIndex'
p3824
g26
(g135
S'\x0c\x00\x00\x00'
p3825
tp3826
Rp3827
sg39
g44
sS'trials_2.thisRepN'
p3828
I0
sS'trials_2.thisTrialN'
p3829
I0
sS'trials.thisRepN'
p3830
I0
sS'trials.thisN'
p3831
I79
sg59
g156
sg36
g12
sS'trials.thisTrialN'
p3832
I79
sg1840
g203
sg1837
g26
(g185
S'\x00\x00\x00\x00\x00\x00\x00\x00'
p3833
tp3834
Rp3835
sS'trials_2.thisN'
p3836
I0
sa(dp3837
g19
(lp3838
F0.45079019413969945
asg18
I0
sg25
g35
sg17
(lp3839
S'l'
p3840
asg56
g154
sg1838
g26
(g185
S'\x00\x00\x00\x00\x00\x00\x00\x00'
p3841
tp3842
Rp3843
sg37
g38
sS'trials_2.thisIndex'
p3844
g1853
sg23
g24
sg1836
Vfrogs/ab43.jpg
p3845
sg1839
g26
(g185
S'\x90\x01\x00\x00\x00\x00\x00\x00'
p3846
tp3847
Rp3848
sS'trials.thisIndex'
p3849
g26
(g135
S'*\x00\x00\x00'
p3850
tp3851
Rp3852
sg39
g44
sS'trials_2.thisRepN'
p3853
I0
sS'trials_2.thisTrialN'
p3854
I0
sS'trials.thisRepN'
p3855
I0
sS'trials.thisN'
p3856
I80
sg59
g156
sg36
g12
sS'trials.thisTrialN'
p3857
I80
sg1840
g203
sg1837
g26
(g185
S'\x00\x00\x00\x00\x00\x00\x00\x00'
p3858
tp3859
Rp3860
sS'trials_2.thisN'
p3861
I0
sa(dp3862
g19
(lp3863
F0.3341859650463448
asg18
I0
sg25
g35
sg17
(lp3864
S'l'
p3865
asg56
g154
sg1838
g26
(g185
S'\x00\x00\x00\x00\x00\x00\x00\x00'
p3866
tp3867
Rp3868
sg37
g38
sS'trials_2.thisIndex'
p3869
g1853
sg23
g24
sg1836
Vfrogs/ab70.jpg
p3870
sg1839
g26
(g185
S'\x90\x01\x00\x00\x00\x00\x00\x00'
p3871
tp3872
Rp3873
sS'trials.thisIndex'
p3874
g26
(g135
S'D\x00\x00\x00'
p3875
tp3876
Rp3877
sg39
g44
sS'trials_2.thisRepN'
p3878
I0
sS'trials_2.thisTrialN'
p3879
I0
sS'trials.thisRepN'
p3880
I0
sS'trials.thisN'
p3881
I81
sg59
g156
sg36
g12
sS'trials.thisTrialN'
p3882
I81
sg1840
g203
sg1837
g26
(g185
S'\x00\x00\x00\x00\x00\x00\x00\x00'
p3883
tp3884
Rp3885
sS'trials_2.thisN'
p3886
I0
sa(dp3887
g19
(lp3888
F0.40096791251562536
asg18
I0
sg25
g35
sg17
(lp3889
S'l'
p3890
asg56
g154
sg1838
g26
(g185
S'\x00\x00\x00\x00\x00\x00\x00\x00'
p3891
tp3892
Rp3893
sg37
g38
sS'trials_2.thisIndex'
p3894
g1853
sg23
g24
sg1836
Vfrogs/ab38.jpg
p3895
sg1839
g26
(g185
S'\x90\x01\x00\x00\x00\x00\x00\x00'
p3896
tp3897
Rp3898
sS'trials.thisIndex'
p3899
g26
(g135
S'%\x00\x00\x00'
p3900
tp3901
Rp3902
sg39
g44
sS'trials_2.thisRepN'
p3903
I0
sS'trials_2.thisTrialN'
p3904
I0
sS'trials.thisRepN'
p3905
I0
sS'trials.thisN'
p3906
I82
sg59
g156
sg36
g12
sS'trials.thisTrialN'
p3907
I82
sg1840
g203
sg1837
g26
(g185
S'\x00\x00\x00\x00\x00\x00\x00\x00'
p3908
tp3909
Rp3910
sS'trials_2.thisN'
p3911
I0
sa(dp3912
g19
(lp3913
F0.6341460258263396
asg18
I0
sg25
g35
sg17
(lp3914
S'l'
p3915
asg56
g154
sg1838
g26
(g185
S'\x00\x00\x00\x00\x00\x00\x00\x00'
p3916
tp3917
Rp3918
sg37
g38
sS'trials_2.thisIndex'
p3919
g1853
sg23
g24
sg1836
Vfrogs/ab14.jpg
p3920
sg1839
g26
(g185
S'\x90\x01\x00\x00\x00\x00\x00\x00'
p3921
tp3922
Rp3923
sS'trials.thisIndex'
p3924
g26
(g135
S'\r\x00\x00\x00'
p3925
tp3926
Rp3927
sg39
g44
sS'trials_2.thisRepN'
p3928
I0
sS'trials_2.thisTrialN'
p3929
I0
sS'trials.thisRepN'
p3930
I0
sS'trials.thisN'
p3931
I83
sg59
g156
sg36
g12
sS'trials.thisTrialN'
p3932
I83
sg1840
g203
sg1837
g26
(g185
S'\x00\x00\x00\x00\x00\x00\x00\x00'
p3933
tp3934
Rp3935
sS'trials_2.thisN'
p3936
I0
sa(dp3937
g19
(lp3938
F0.4347341810571379
asg18
I0
sg25
g35
sg17
(lp3939
S'l'
p3940
asg56
g154
sg1838
g26
(g185
S'\x00\x00\x00\x00\x00\x00\x00\x00'
p3941
tp3942
Rp3943
sg37
g38
sS'trials_2.thisIndex'
p3944
g1853
sg23
g24
sg1836
Vfrogs/ab68.jpg
p3945
sg1839
g26
(g185
S'\x90\x01\x00\x00\x00\x00\x00\x00'
p3946
tp3947
Rp3948
sS'trials.thisIndex'
p3949
g26
(g135
S'B\x00\x00\x00'
p3950
tp3951
Rp3952
sg39
g44
sS'trials_2.thisRepN'
p3953
I0
sS'trials_2.thisTrialN'
p3954
I0
sS'trials.thisRepN'
p3955
I0
sS'trials.thisN'
p3956
I84
sg59
g156
sg36
g12
sS'trials.thisTrialN'
p3957
I84
sg1840
g203
sg1837
g26
(g185
S'\x00\x00\x00\x00\x00\x00\x00\x00'
p3958
tp3959
Rp3960
sS'trials_2.thisN'
p3961
I0
sa(dp3962
g19
(lp3963
F0.3008900421918952
asg18
I0
sg25
g35
sg17
(lp3964
S'l'
p3965
asg56
g154
sg1838
g26
(g185
S'\x00\x00\x00\x00\x00\x00\x00\x00'
p3966
tp3967
Rp3968
sg37
g38
sS'trials_2.thisIndex'
p3969
g1853
sg23
g24
sg1836
Vfrogs/ab32.jpg
p3970
sg1839
g26
(g185
S'\x90\x01\x00\x00\x00\x00\x00\x00'
p3971
tp3972
Rp3973
sS'trials.thisIndex'
p3974
g26
(g135
S'\x1f\x00\x00\x00'
p3975
tp3976
Rp3977
sg39
g44
sS'trials_2.thisRepN'
p3978
I0
sS'trials_2.thisTrialN'
p3979
I0
sS'trials.thisRepN'
p3980
I0
sS'trials.thisN'
p3981
I85
sg59
g156
sg36
g12
sS'trials.thisTrialN'
p3982
I85
sg1840
g203
sg1837
g26
(g185
S'\x00\x00\x00\x00\x00\x00\x00\x00'
p3983
tp3984
Rp3985
sS'trials_2.thisN'
p3986
I0
sa(dp3987
g19
(lp3988
F0.26687253587442683
asg18
I0
sg25
g35
sg17
(lp3989
S'l'
p3990
asg56
g154
sg1838
g26
(g185
S'\x00\x00\x00\x00\x00\x00\x00\x00'
p3991
tp3992
Rp3993
sg37
g38
sS'trials_2.thisIndex'
p3994
g1853
sg23
g24
sg1836
Vfrogs/ab34.jpg
p3995
sg1839
g26
(g185
S'\x90\x01\x00\x00\x00\x00\x00\x00'
p3996
tp3997
Rp3998
sS'trials.thisIndex'
p3999
g26
(g135
S'!\x00\x00\x00'
p4000
tp4001
Rp4002
sg39
g44
sS'trials_2.thisRepN'
p4003
I0
sS'trials_2.thisTrialN'
p4004
I0
sS'trials.thisRepN'
p4005
I0
sS'trials.thisN'
p4006
I86
sg59
g156
sg36
g12
sS'trials.thisTrialN'
p4007
I86
sg1840
g203
sg1837
g26
(g185
S'\x00\x00\x00\x00\x00\x00\x00\x00'
p4008
tp4009
Rp4010
sS'trials_2.thisN'
p4011
I0
sa(dp4012
g19
(lp4013
F0.25088524501916254
asg18
I0
sg25
g35
sg17
(lp4014
S'l'
p4015
asg56
g154
sg1838
g26
(g185
S'\x00\x00\x00\x00\x00\x00\x00\x00'
p4016
tp4017
Rp4018
sg37
g38
sS'trials_2.thisIndex'
p4019
g1853
sg23
g24
sg1836
Vfrogs/ab46.jpg
p4020
sg1839
g26
(g185
S'\x90\x01\x00\x00\x00\x00\x00\x00'
p4021
tp4022
Rp4023
sS'trials.thisIndex'
p4024
g26
(g135
S'-\x00\x00\x00'
p4025
tp4026
Rp4027
sg39
g44
sS'trials_2.thisRepN'
p4028
I0
sS'trials_2.thisTrialN'
p4029
I0
sS'trials.thisRepN'
p4030
I0
sS'trials.thisN'
p4031
I87
sg59
g156
sg36
g12
sS'trials.thisTrialN'
p4032
I87
sg1840
g203
sg1837
g26
(g185
S'\x00\x00\x00\x00\x00\x00\x00\x00'
p4033
tp4034
Rp4035
sS'trials_2.thisN'
p4036
I0
sa(dp4037
g19
(lp4038
F0.15120230442698812
asg18
I0
sg25
g35
sg17
(lp4039
S'l'
p4040
asg56
g154
sg1838
g26
(g185
S'\x00\x00\x00\x00\x00\x00\x00\x00'
p4041
tp4042
Rp4043
sg37
g38
sS'trials_2.thisIndex'
p4044
g1853
sg23
g24
sg1836
Vfrogs/ab15.jpg
p4045
sg1839
g26
(g185
S'\x90\x01\x00\x00\x00\x00\x00\x00'
p4046
tp4047
Rp4048
sS'trials.thisIndex'
p4049
g26
(g135
S'\x0e\x00\x00\x00'
p4050
tp4051
Rp4052
sg39
g44
sS'trials_2.thisRepN'
p4053
I0
sS'trials_2.thisTrialN'
p4054
I0
sS'trials.thisRepN'
p4055
I0
sS'trials.thisN'
p4056
I88
sg59
g156
sg36
g12
sS'trials.thisTrialN'
p4057
I88
sg1840
g203
sg1837
g26
(g185
S'\x00\x00\x00\x00\x00\x00\x00\x00'
p4058
tp4059
Rp4060
sS'trials_2.thisN'
p4061
I0
sa(dp4062
g19
(lp4063
F1.0675240583586856
asg18
I0
sg25
g35
sg17
(lp4064
S'l'
p4065
asg56
g154
sg1838
g26
(g185
S'\x00\x00\x00\x00\x00\x00\x00\x00'
p4066
tp4067
Rp4068
sg37
g38
sS'trials_2.thisIndex'
p4069
g1853
sg23
g24
sg1836
Vfrogs/ab48.jpg
p4070
sg1839
g26
(g185
S'\x90\x01\x00\x00\x00\x00\x00\x00'
p4071
tp4072
Rp4073
sS'trials.thisIndex'
p4074
g26
(g135
S'/\x00\x00\x00'
p4075
tp4076
Rp4077
sg39
g44
sS'trials_2.thisRepN'
p4078
I0
sS'trials_2.thisTrialN'
p4079
I0
sS'trials.thisRepN'
p4080
I0
sS'trials.thisN'
p4081
I89
sg59
g156
sg36
g12
sS'trials.thisTrialN'
p4082
I89
sg1840
g203
sg1837
g26
(g185
S'\x00\x00\x00\x00\x00\x00\x00\x00'
p4083
tp4084
Rp4085
sS'trials_2.thisN'
p4086
I0
sa(dp4087
g37
g38
sg39
g44
sS'trials_2.thisRepN'
p4088
I0
sS'trials_2.thisTrialN'
p4089
I0
sg25
g35
sg56
g154
sg59
g156
sg36
g12
sS'trials_2.thisIndex'
p4090
g1853
sg23
g24
sS'trials_2.thisN'
p4091
I0
sasS'loops'
p4092
(lp4093
g49
ag0
(g47
g2
Ntp4094
Rp4095
(dp4096
g51
Nsg52
(lp4097
sg63
I452689808
sg11
g121
sg6
I-1
sg65
I1
sg20
I01
sg21
g22
sg66
g0
(g67
g68
(dp4098
g70
g71
(g72
g73
g74
g75
tp4099
Rp4100
(I1
(I90
I1
tp4101
g81
I00
S'\x00\x00\x80?\x00\x00\x80?\x00\x00\x80?\x00\x00\x80?\x00\x00\x80?\x00\x00\x80?\x00\x00\x80?\x00\x00\x80?\x00\x00\x80?\x00\x00\x80?\x00\x00\x80?\x00\x00\x80?\x00\x00\x80?\x00\x00\x80?\x00\x00\x80?\x00\x00\x80?\x00\x00\x80?\x00\x00\x80?\x00\x00\x80?\x00\x00\x80?\x00\x00\x80?\x00\x00\x80?\x00\x00\x80?\x00\x00\x80?\x00\x00\x80?\x00\x00\x80?\x00\x00\x80?\x00\x00\x80?\x00\x00\x80?\x00\x00\x80?\x00\x00\x80?\x00\x00\x80?\x00\x00\x80?\x00\x00\x80?\x00\x00\x80?\x00\x00\x80?\x00\x00\x80?\x00\x00\x80?\x00\x00\x80?\x00\x00\x80?\x00\x00\x80?\x00\x00\x80?\x00\x00\x80?\x00\x00\x80?\x00\x00\x80?\x00\x00\x80?\x00\x00\x80?\x00\x00\x80?\x00\x00\x80?\x00\x00\x80?\x00\x00\x80?\x00\x00\x80?\x00\x00\x80?\x00\x00\x80?\x00\x00\x80?\x00\x00\x80?\x00\x00\x80?\x00\x00\x80?\x00\x00\x80?\x00\x00\x80?\x00\x00\x80?\x00\x00\x80?\x00\x00\x80?\x00\x00\x80?\x00\x00\x80?\x00\x00\x80?\x00\x00\x80?\x00\x00\x80?\x00\x00\x80?\x00\x00\x80?\x00\x00\x80?\x00\x00\x80?\x00\x00\x80?\x00\x00\x80?\x00\x00\x80?\x00\x00\x80?\x00\x00\x80?\x00\x00\x80?\x00\x00\x80?\x00\x00\x80?\x00\x00\x80?\x00\x00\x80?\x00\x00\x80?\x00\x00\x80?\x00\x00\x80?\x00\x00\x80?\x00\x00\x80?\x00\x00\x80?\x00\x00\x80?\x00\x00\x80?'
p4102
S'\x00\x00\x00\x00\x00\x00\x00\x00\x00\x00\x00\x00\x00\x00\x00\x00\x00\x00\x00\x00\x00\x00\x00\x00\x00\x00\x00\x00\x00\x00\x00\x00\x00\x00\x00\x00\x00\x00\x00\x00\x00\x00\x00\x00\x00\x00\x00\x00\x00\x00\x00\x00\x00\x00\x00\x00\x00\x00\x00\x00\x00\x00\x00\x00\x00\x00\x00\x00\x00\x00\x00\x00\x00\x00\x00\x00\x00\x00\x00\x00\x00\x00\x00\x00\x00\x00\x00\x00\x00\x00'
p4103
Ntp4104
bsg18
g71
(g72
g73
g74
g75
tp4105
Rp4106
(I1
(I90
I1
tp4107
g81
I00
S'\x00\x00\x00\x00\x00\x00\x00\x00\x00\x00\x00\x00\x00\x00\x00\x00\x00\x00\x00\x00\x00\x00\x00\x00\x00\x00\x00\x00\x00\x00\x00\x00\x00\x00\x00\x00\x00\x00\x00\x00\x00\x00\x00\x00\x00\x00\x00\x00\x00\x00\x00\x00\x00\x00\x00\x00\x00\x00\x00\x00\x00\x00\x00\x00\x00\x00\x00\x00\x00\x00\x00\x00\x00\x00\x00\x00\x00\x00\x00\x00\x00\x00\x00\x00\x00\x00\x00\x00\x00\x00\x00\x00\x00\x00\x00\x00\x00\x00\x00\x00\x00\x00\x00\x00\x00\x00\x00\x00\x00\x00\x00\x00\x00\x00\x00\x00\x00\x00\x00\x00\x00\x00\x00\x00\x00\x00\x00\x00\x00\x00\x00\x00\x00\x00\x00\x00\x00\x00\x00\x00\x00\x00\x00\x00\x00\x00\x00\x00\x00\x00\x00\x00\x00\x00\x00\x00\x00\x00\x00\x00\x00\x00\x00\x00\x00\x00\x00\x00\x00\x00\x00\x00\x00\x00\x00\x00\x00\x00\x00\x00\x00\x00\x00\x00\x00\x00\x00\x00\x00\x00\x00\x00\x00\x00\x00\x00\x00\x00\x00\x00\x00\x00\x00\x00\x00\x00\x00\x00\x00\x00\x00\x00\x00\x00\x00\x00\x00\x00\x00\x00\x00\x00\x00\x00\x00\x00\x00\x00\x00\x00\x00\x00\x00\x00\x00\x00\x00\x00\x00\x00\x00\x00\x00\x00\x00\x00\x00\x00\x00\x00\x00\x00\x00\x00\x00\x00\x00\x00\x00\x00\x00\x00\x00\x00\x00\x00\x00\x00\x00\x00\x00\x00\x00\x00\x00\x00\x00\x00\x00\x00\x00\x00\x00\x00\x00\x00\x00\x00\x00\x00\x00\x00\x00\x00\x00\x00\x00\x00\x00\x00\x00\x00\x00\x00\x00\x00\x00\x00\x00\x00\x00\x00\x00\x00\x00\x00\x00\x00\x00\x00\x00\x00\x00\x00\x00\x00\x00\x00\x00\x00\x00\x00\x00\x00\x00\x00\x00\x00\x00\x00\x00\x00\x00\x00\x00\x00\x00\x00\x00\x00\x00\x00\x00\x00\x00\x00\x00\x00\x00\x00'
p4108
S'\x00\x00\x00\x00\x00\x00\x00\x00\x00\x00\x00\x00\x00\x00\x00\x00\x00\x00\x00\x00\x00\x00\x00\x00\x00\x00\x00\x00\x00\x00\x00\x00\x00\x00\x00\x00\x00\x00\x00\x00\x00\x00\x00\x00\x00\x00\x00\x00\x00\x00\x00\x00\x00\x00\x00\x00\x00\x00\x00\x00\x00\x00\x00\x00\x00\x00\x00\x00\x00\x00\x00\x00\x00\x00\x00\x00\x00\x00\x00\x00\x00\x00\x00\x00\x00\x00\x00\x00\x00\x00'
p4109
Ntp4110
bsg19
g87
(g73
(I0
tp4111
g75
tp4112
Rp4113
(I1
(I90
I1
tp4114
g94
I00
(lp4115
(lp4116
F0.2509575372459949
aa(lp4117
F0.24293399318412412
aa(lp4118
F0.2177611277656979
aa(lp4119
F0.950827902124729
aa(lp4120
F0.35104165504162665
aa(lp4121
F1.0339532465659431
aa(lp4122
F0.7508662794716656
aa(lp4123
F0.7340092507292866
aa(lp4124
F0.2838156905345386
aa(lp4125
F1.0006943623229745
aa(lp4126
F0.6336011566745583
aa(lp4127
F0.4008755391187151
aa(lp4128
F0.21809804521035403
aa(lp4129
F0.6341460258263396
aa(lp4130
F0.15120230442698812
aa(lp4131
F0.0177383690897841
aa(lp4132
F0.7174833382014185
aa(lp4133
F0.8340996159968199
aa(lp4134
F0.6841865228561801
aa(lp4135
F4.382881916011684
aa(lp4136
F2.400242312811315
aa(lp4137
F0.4509936833565007
aa(lp4138
F3.61568518076092
aa(lp4139
F0.28444266937003704
aa(lp4140
F6.198916062930948
aa(lp4141
F1.2344972232240252
aa(lp4142
F0.4675347683223663
aa(lp4143
F0.3841858534797211
aa(lp4144
F2.216776704059157
aa(lp4145
F0.7174918169184821
aa(lp4146
F0.36833511460281443
aa(lp4147
F0.3008900421918952
aa(lp4148
F7.848877127769811
aa(lp4149
F0.26687253587442683
aa(lp4150
F0.6174085916136391
aa(lp4151
F0.6840762995343539
aa(lp4152
F0.5176475575717632
aa(lp4153
F0.40096791251562536
aa(lp4154
F0.35084262831514934
aa(lp4155
F0.21755674605083186
aa(lp4156
F0.01770400797977345
aa(lp4157
F24.5094285567684
aa(lp4158
F0.45079019413969945
aa(lp4159
F1.1008721922626137
aa(lp4160
F0.5675729225476971
aa(lp4161
F0.25088524501916254
aa(lp4162
F0.2837844531532028
aa(lp4163
F1.0675240583586856
aa(lp4164
F1.0839544737464166
aa(lp4165
F1.0512342111833277
aa(lp4166
F0.6341571820303216
aa(lp4167
F0.3348557837161934
aa(lp4168
F0.06761732424638467
aa(lp4169
F0.8674589061120059
aa(lp4170
F0.7507547174027422
aa(lp4171
F0.26358457855531015
aa(lp4172
F1.134086897931411
aa(lp4173
F0.5368197223870084
aa(lp4174
F1.0172916745723342
aa(lp4175
F0.383698550365807
aa(lp4176
F0.39557410956331296
aa(lp4177
F0.6842097277622088
aa(lp4178
F0.3342033687295043
aa(lp4179
F4.1663252123616985
aa(lp4180
F1.6337604673171882
aa(lp4181
F0.9508015734681976
aa(lp4182
F0.4347341810571379
aa(lp4183
F0.2004993518203264
aa(lp4184
F0.3341859650463448
aa(lp4185
F0.5175882065523183
aa(lp4186
F0.2843949208036065
aa(lp4187
F0.38437372400949243
aa(lp4188
F2.1935637610658887
aa(lp4189
F0.9179666250929586
aa(lp4190
F0.6175781659621862
aa(lp4191
F1.283870132829179
aa(lp4192
F0.18407384516467573
aa(lp4193
F0.3178363205952337
aa(lp4194
F0.4513292620613356
aa(lp4195
F0.417539342364762
aa(lp4196
F0.900772232649615
aa(lp4197
F0.5675657825777307
aa(lp4198
F0.034424930992827285
aa(lp4199
F0.2679466554764076
aa(lp4200
F0.43429908898542635
aa(lp4201
F0.15077435232524294
aa(lp4202
F0.4842512288596481
aa(lp4203
F0.5176131964544766
aa(lp4204
F0.9833156693421188
aa(lp4205
F0.05109007297869539
aatp4206
bsg103
g71
(g72
g73
g74
g75
tp4207
Rp4208
(I1
(I90
I1
tp4209
g81
I00
S'\x00\x00`A\x00\x00HB\x00\x00PA\x00\x00XB\x00\x00DB\x00\x00\\B\x00\x00\x80A\x00\x004B\x00\x00@A\x00\x00dB\x00\x00\x9cB\x00\x00\x90B\x00\x00\x9eB\x00\x00\xa6B\x00\x00\xb0B\x00\x00 A\x00\x00\x00\x00\x00\x00LB\x00\x00<B\x00\x000A\x00\x00\xe8A\x00\x00lB\x00\x00pA\x00\x00pB\x00\x00\xa0@\x00\x00PB\x00\x00\x98B\x00\x008B\x00\x00\xe0@\x00\x00`B\x00\x00hB\x00\x00\xaaB\x00\x00\x80@\x00\x00\xacB\x00\x00\x96B\x00\x00\xd8A\x00\x00\x80B\x00\x00\xa4B\x00\x00\x92B\x00\x00\x10A\x00\x00\x98A\x00\x00\x00@\x00\x00\xa0B\x00\x00xB\x00\x00\x9aB\x00\x00\xaeB\x00\x00\x94B\x00\x00\xb2B\x00\x00\xe0A\x00\x000B\x00\x00@B\x00\x00\x10B\x00\x00\xa0A\x00\x00\xf8A\x00\x00,B\x00\x00\xd0A\x00\x00 B\x00\x00\xa8A\x00\x00\x0cB\x00\x00tB\x00\x00$B\x00\x00TB\x00\x00\xc0A\x00\x00@@\x00\x00\xc8A\x00\x00\x8cB\x00\x00\xa8B\x00\x00\x80?\x00\x00\xa2B\x00\x00\x82B\x00\x00\x90A\x00\x00\x8aB\x00\x00\x14B\x00\x00|B\x00\x00\x00B\x00\x00\xf0A\x00\x00\xb0A\x00\x00\x88B\x00\x00\x84B\x00\x00(B\x00\x00\x04B\x00\x00\x1cB\x00\x00\x88A\x00\x00\x18B\x00\x00\x08B\x00\x00\x00A\x00\x00\x8eB\x00\x00\x86B\x00\x00\xc0@\x00\x00\xb8A'
p4210
S'\x00\x00\x00\x00\x00\x00\x00\x00\x00\x00\x00\x00\x00\x00\x00\x00\x00\x00\x00\x00\x00\x00\x00\x00\x00\x00\x00\x00\x00\x00\x00\x00\x00\x00\x00\x00\x00\x00\x00\x00\x00\x00\x00\x00\x00\x00\x00\x00\x00\x00\x00\x00\x00\x00\x00\x00\x00\x00\x00\x00\x00\x00\x00\x00\x00\x00\x00\x00\x00\x00\x00\x00\x00\x00\x00\x00\x00\x00\x00\x00\x00\x00\x00\x00\x00\x00\x00\x00\x00\x00'
p4211
Ntp4212
bsg17
g87
(g73
(I0
tp4213
g75
tp4214
Rp4215
(I1
(I90
I1
tp4216
g94
I00
(lp4217
(lp4218
g2198
aa(lp4219
g3092
aa(lp4220
g2173
aa(lp4221
g3192
aa(lp4222
g3067
aa(lp4223
g3217
aa(lp4224
g2248
aa(lp4225
g2967
aa(lp4226
g2148
aa(lp4227
g3267
aa(lp4228
g3790
aa(lp4229
g3640
aa(lp4230
g3815
aa(lp4231
g3915
aa(lp4232
g4040
aa(lp4233
g2098
aa(lp4234
g1846
aa(lp4235
g3117
aa(lp4236
g3017
aa(lp4237
g2123
aa(lp4238
g2571
aa(lp4239
g3317
aa(lp4240
g2223
aa(lp4241
g3342
aa(lp4242
g1974
aa(lp4243
g3142
aa(lp4244
g3740
aa(lp4245
g2992
aa(lp4246
g2024
aa(lp4247
g3242
aa(lp4248
g3292
aa(lp4249
g3965
aa(lp4250
g1949
aa(lp4251
g3990
aa(lp4252
g3715
aa(lp4253
g2521
aa(lp4254
g3442
aa(lp4255
g3890
aa(lp4256
g3665
aa(lp4257
g2073
aa(lp4258
g2322
aa(lp4259
g1899
aa(lp4260
g3840
aa(lp4261
g3392
aa(lp4262
g3765
aa(lp4263
g4015
aa(lp4264
g3690
aa(lp4265
g4065
aa(lp4266
g2546
aa(lp4267
g2942
aa(lp4268
g3042
aa(lp4269
g2744
aa(lp4270
g2347
aa(lp4271
g2621
aa(lp4272
g2917
aa(lp4273
g2496
aa(lp4274
g2842
aa(lp4275
g2372
aa(lp4276
g2719
aa(lp4277
g3367
aa(lp4278
g2867
aa(lp4279
g3167
aa(lp4280
g2446
aa(lp4281
g1924
aa(lp4282
g2471
aa(lp4283
g3591
aa(lp4284
g3940
aa(lp4285
g1874
aa(lp4286
g3865
aa(lp4287
g3467
aa(lp4288
g2297
aa(lp4289
g3566
aa(lp4290
g2769
aa(lp4291
g3417
aa(lp4292
g2646
aa(lp4293
g2596
aa(lp4294
g2397
aa(lp4295
g3541
aa(lp4296
g3492
aa(lp4297
g2892
aa(lp4298
g2671
aa(lp4299
g2818
aa(lp4300
g2273
aa(lp4301
g2794
aa(lp4302
g2695
aa(lp4303
g2049
aa(lp4304
g3616
aa(lp4305
g3517
aa(lp4306
g1999
aa(lp4307
g2422
aatp4308
bstp4309
Rp4310
(dp4311
g119
(dp4312
g70
I01
sg18
I01
sg19
I00
sg103
I01
sg17
I00
ssg121
g4095
sg122
(lp4313
g70
ag103
ag17
ag18
ag19
asg124
(lp4314
I90
aI1
asbsg126
g127
sg128
g87
(g73
(I0
tp4315
g75
tp4316
Rp4317
(I1
(I90
I1
tp4318
g135
I00
S'\x10\x00\x00\x00C\x00\x00\x00)\x00\x00\x00?\x00\x00\x00 \x00\x00\x00\x18\x00\x00\x00X\x00\x00\x00\x1c\x00\x00\x00U\x00\x00\x00\'\x00\x00\x00\x0f\x00\x00\x00\x13\x00\x00\x00\x08\x00\x00\x00\x02\x00\x00\x00\x00\x00\x00\x00\x16\x00\x00\x00\x06\x00\x00\x00R\x00\x00\x00F\x00\x00\x00(\x00\x00\x004\x00\x00\x009\x00\x00\x00L\x00\x00\x00Y\x00\x00\x00>\x00\x00\x00@\x00\x00\x007\x00\x00\x00#\x00\x00\x000\x00\x00\x00\x14\x00\x00\x00K\x00\x00\x005\x00\x00\x00J\x00\x00\x00P\x00\x00\x00T\x00\x00\x00:\x00\x00\x003\x00\x00\x00H\x00\x00\x00S\x00\x00\x00Q\x00\x00\x008\x00\x00\x00<\x00\x00\x00O\x00\x00\x006\x00\x00\x001\x00\x00\x00\x07\x00\x00\x00\x1b\x00\x00\x00\x12\x00\x00\x002\x00\x00\x00\x04\x00\x00\x00\x01\x00\x00\x00\x11\x00\x00\x00\x19\x00\x00\x00=\x00\x00\x00\x03\x00\x00\x00\x05\x00\x00\x00\x1d\x00\x00\x00\t\x00\x00\x00\x1e\x00\x00\x00\x15\x00\x00\x00\x17\x00\x00\x00;\x00\x00\x00+\x00\x00\x00I\x00\x00\x00$\x00\x00\x00E\x00\x00\x00N\x00\x00\x00W\x00\x00\x00M\x00\x00\x00G\x00\x00\x00A\x00\x00\x00V\x00\x00\x00\x0b\x00\x00\x00&\x00\x00\x00.\x00\x00\x00"\x00\x00\x00\x1a\x00\x00\x00,\x00\x00\x00\n\x00\x00\x00\x0c\x00\x00\x00*\x00\x00\x00D\x00\x00\x00%\x00\x00\x00\r\x00\x00\x00B\x00\x00\x00\x1f\x00\x00\x00!\x00\x00\x00-\x00\x00\x00\x0e\x00\x00\x00/\x00\x00\x00'
p4319
tp4320
bsg140
I01
sg141
I1
sg142
I-1
sg143
(lp4321
g53
((lp4322
(lp4323
g1836
ag2203
aa(lp4324
g1837
ag2218
aa(lp4325
g1838
ag2201
aa(lp4326
g1839
ag2206
aa(lp4327
g1840
ag203
aatp4328
Rp4329
ag53
((lp4330
(lp4331
g1836
ag3097
aa(lp4332
g1837
ag3112
aa(lp4333
g1838
ag3095
aa(lp4334
g1839
ag3100
aa(lp4335
g1840
ag203
aatp4336
Rp4337
ag53
((lp4338
(lp4339
g1836
ag2178
aa(lp4340
g1837
ag2193
aa(lp4341
g1838
ag2176
aa(lp4342
g1839
ag2181
aa(lp4343
g1840
ag203
aatp4344
Rp4345
ag53
((lp4346
(lp4347
g1836
ag3197
aa(lp4348
g1837
ag3212
aa(lp4349
g1838
ag3195
aa(lp4350
g1839
ag3200
aa(lp4351
g1840
ag203
aatp4352
Rp4353
ag53
((lp4354
(lp4355
g1836
ag3072
aa(lp4356
g1837
ag3087
aa(lp4357
g1838
ag3070
aa(lp4358
g1839
ag3075
aa(lp4359
g1840
ag203
aatp4360
Rp4361
ag53
((lp4362
(lp4363
g1836
ag3222
aa(lp4364
g1837
ag3237
aa(lp4365
g1838
ag3220
aa(lp4366
g1839
ag3225
aa(lp4367
g1840
ag203
aatp4368
Rp4369
ag53
((lp4370
(lp4371
g1836
ag2253
aa(lp4372
g1837
ag2268
aa(lp4373
g1838
ag2251
aa(lp4374
g1839
ag2256
aa(lp4375
g1840
ag203
aatp4376
Rp4377
ag53
((lp4378
(lp4379
g1836
ag2972
aa(lp4380
g1837
ag2987
aa(lp4381
g1838
ag2970
aa(lp4382
g1839
ag2975
aa(lp4383
g1840
ag203
aatp4384
Rp4385
ag53
((lp4386
(lp4387
g1836
ag2153
aa(lp4388
g1837
ag2168
aa(lp4389
g1838
ag2151
aa(lp4390
g1839
ag2156
aa(lp4391
g1840
ag203
aatp4392
Rp4393
ag53
((lp4394
(lp4395
g1836
ag3272
aa(lp4396
g1837
ag3287
aa(lp4397
g1838
ag3270
aa(lp4398
g1839
ag3275
aa(lp4399
g1840
ag203
aatp4400
Rp4401
ag53
((lp4402
(lp4403
g1836
ag3795
aa(lp4404
g1837
ag3810
aa(lp4405
g1838
ag3793
aa(lp4406
g1839
ag3798
aa(lp4407
g1840
ag203
aatp4408
Rp4409
ag53
((lp4410
(lp4411
g1836
ag3645
aa(lp4412
g1837
ag3660
aa(lp4413
g1838
ag3643
aa(lp4414
g1839
ag3648
aa(lp4415
g1840
ag203
aatp4416
Rp4417
ag53
((lp4418
(lp4419
g1836
ag3820
aa(lp4420
g1837
ag3835
aa(lp4421
g1838
ag3818
aa(lp4422
g1839
ag3823
aa(lp4423
g1840
ag203
aatp4424
Rp4425
ag53
((lp4426
(lp4427
g1836
ag3920
aa(lp4428
g1837
ag3935
aa(lp4429
g1838
ag3918
aa(lp4430
g1839
ag3923
aa(lp4431
g1840
ag203
aatp4432
Rp4433
ag53
((lp4434
(lp4435
g1836
ag4045
aa(lp4436
g1837
ag4060
aa(lp4437
g1838
ag4043
aa(lp4438
g1839
ag4048
aa(lp4439
g1840
ag203
aatp4440
Rp4441
ag53
((lp4442
(lp4443
g1836
ag2103
aa(lp4444
g1837
ag2118
aa(lp4445
g1838
ag2101
aa(lp4446
g1839
ag2106
aa(lp4447
g1840
ag203
aatp4448
Rp4449
ag53
((lp4450
(lp4451
g1836
ag1854
aa(lp4452
g1837
ag1869
aa(lp4453
g1838
ag1849
aa(lp4454
g1839
ag1857
aa(lp4455
g1840
ag203
aatp4456
Rp4457
ag53
((lp4458
(lp4459
g1836
ag3122
aa(lp4460
g1837
ag3137
aa(lp4461
g1838
ag3120
aa(lp4462
g1839
ag3125
aa(lp4463
g1840
ag203
aatp4464
Rp4465
ag53
((lp4466
(lp4467
g1836
ag3022
aa(lp4468
g1837
ag3037
aa(lp4469
g1838
ag3020
aa(lp4470
g1839
ag3025
aa(lp4471
g1840
ag203
aatp4472
Rp4473
ag53
((lp4474
(lp4475
g1836
ag2128
aa(lp4476
g1837
ag2143
aa(lp4477
g1838
ag2126
aa(lp4478
g1839
ag2131
aa(lp4479
g1840
ag203
aatp4480
Rp4481
ag53
((lp4482
(lp4483
g1836
ag2576
aa(lp4484
g1837
ag2591
aa(lp4485
g1838
ag2574
aa(lp4486
g1839
ag2579
aa(lp4487
g1840
ag203
aatp4488
Rp4489
ag53
((lp4490
(lp4491
g1836
ag3322
aa(lp4492
g1837
ag3337
aa(lp4493
g1838
ag3320
aa(lp4494
g1839
ag3325
aa(lp4495
g1840
ag203
aatp4496
Rp4497
ag53
((lp4498
(lp4499
g1836
ag2228
aa(lp4500
g1837
ag2243
aa(lp4501
g1838
ag2226
aa(lp4502
g1839
ag2231
aa(lp4503
g1840
ag203
aatp4504
Rp4505
ag53
((lp4506
(lp4507
g1836
ag3347
aa(lp4508
g1837
ag3362
aa(lp4509
g1838
ag3345
aa(lp4510
g1839
ag3350
aa(lp4511
g1840
ag203
aatp4512
Rp4513
ag53
((lp4514
(lp4515
g1836
ag1979
aa(lp4516
g1837
ag1994
aa(lp4517
g1838
ag1977
aa(lp4518
g1839
ag1982
aa(lp4519
g1840
ag203
aatp4520
Rp4521
ag53
((lp4522
(lp4523
g1836
ag3147
aa(lp4524
g1837
ag3162
aa(lp4525
g1838
ag3145
aa(lp4526
g1839
ag3150
aa(lp4527
g1840
ag203
aatp4528
Rp4529
ag53
((lp4530
(lp4531
g1836
ag3745
aa(lp4532
g1837
ag3760
aa(lp4533
g1838
ag3743
aa(lp4534
g1839
ag3748
aa(lp4535
g1840
ag203
aatp4536
Rp4537
ag53
((lp4538
(lp4539
g1836
ag2997
aa(lp4540
g1837
ag3012
aa(lp4541
g1838
ag2995
aa(lp4542
g1839
ag3000
aa(lp4543
g1840
ag203
aatp4544
Rp4545
ag53
((lp4546
(lp4547
g1836
ag2029
aa(lp4548
g1837
ag2044
aa(lp4549
g1838
ag2027
aa(lp4550
g1839
ag2032
aa(lp4551
g1840
ag203
aatp4552
Rp4553
ag53
((lp4554
(lp4555
g1836
ag3247
aa(lp4556
g1837
ag3262
aa(lp4557
g1838
ag3245
aa(lp4558
g1839
ag3250
aa(lp4559
g1840
ag203
aatp4560
Rp4561
ag53
((lp4562
(lp4563
g1836
ag3297
aa(lp4564
g1837
ag3312
aa(lp4565
g1838
ag3295
aa(lp4566
g1839
ag3300
aa(lp4567
g1840
ag203
aatp4568
Rp4569
ag53
((lp4570
(lp4571
g1836
ag3970
aa(lp4572
g1837
ag3985
aa(lp4573
g1838
ag3968
aa(lp4574
g1839
ag3973
aa(lp4575
g1840
ag203
aatp4576
Rp4577
ag53
((lp4578
(lp4579
g1836
ag1954
aa(lp4580
g1837
ag1969
aa(lp4581
g1838
ag1952
aa(lp4582
g1839
ag1957
aa(lp4583
g1840
ag203
aatp4584
Rp4585
ag53
((lp4586
(lp4587
g1836
ag3995
aa(lp4588
g1837
ag4010
aa(lp4589
g1838
ag3993
aa(lp4590
g1839
ag3998
aa(lp4591
g1840
ag203
aatp4592
Rp4593
ag53
((lp4594
(lp4595
g1836
ag3720
aa(lp4596
g1837
ag3735
aa(lp4597
g1838
ag3718
aa(lp4598
g1839
ag3723
aa(lp4599
g1840
ag203
aatp4600
Rp4601
ag53
((lp4602
(lp4603
g1836
ag2526
aa(lp4604
g1837
ag2541
aa(lp4605
g1838
ag2524
aa(lp4606
g1839
ag2529
aa(lp4607
g1840
ag203
aatp4608
Rp4609
ag53
((lp4610
(lp4611
g1836
ag3447
aa(lp4612
g1837
ag3462
aa(lp4613
g1838
ag3445
aa(lp4614
g1839
ag3450
aa(lp4615
g1840
ag203
aatp4616
Rp4617
ag53
((lp4618
(lp4619
g1836
ag3895
aa(lp4620
g1837
ag3910
aa(lp4621
g1838
ag3893
aa(lp4622
g1839
ag3898
aa(lp4623
g1840
ag203
aatp4624
Rp4625
ag53
((lp4626
(lp4627
g1836
ag3670
aa(lp4628
g1837
ag3685
aa(lp4629
g1838
ag3668
aa(lp4630
g1839
ag3673
aa(lp4631
g1840
ag203
aatp4632
Rp4633
ag53
((lp4634
(lp4635
g1836
ag2078
aa(lp4636
g1837
ag2093
aa(lp4637
g1838
ag2076
aa(lp4638
g1839
ag2081
aa(lp4639
g1840
ag203
aatp4640
Rp4641
ag53
((lp4642
(lp4643
g1836
ag2327
aa(lp4644
g1837
ag2342
aa(lp4645
g1838
ag2325
aa(lp4646
g1839
ag2330
aa(lp4647
g1840
ag203
aatp4648
Rp4649
ag53
((lp4650
(lp4651
g1836
ag1904
aa(lp4652
g1837
ag1919
aa(lp4653
g1838
ag1902
aa(lp4654
g1839
ag1907
aa(lp4655
g1840
ag203
aatp4656
Rp4657
ag53
((lp4658
(lp4659
g1836
ag3845
aa(lp4660
g1837
ag3860
aa(lp4661
g1838
ag3843
aa(lp4662
g1839
ag3848
aa(lp4663
g1840
ag203
aatp4664
Rp4665
ag53
((lp4666
(lp4667
g1836
ag3397
aa(lp4668
g1837
ag3412
aa(lp4669
g1838
ag3395
aa(lp4670
g1839
ag3400
aa(lp4671
g1840
ag203
aatp4672
Rp4673
ag53
((lp4674
(lp4675
g1836
ag3770
aa(lp4676
g1837
ag3785
aa(lp4677
g1838
ag3768
aa(lp4678
g1839
ag3773
aa(lp4679
g1840
ag203
aatp4680
Rp4681
ag53
((lp4682
(lp4683
g1836
ag4020
aa(lp4684
g1837
ag4035
aa(lp4685
g1838
ag4018
aa(lp4686
g1839
ag4023
aa(lp4687
g1840
ag203
aatp4688
Rp4689
ag53
((lp4690
(lp4691
g1836
ag3695
aa(lp4692
g1837
ag3710
aa(lp4693
g1838
ag3693
aa(lp4694
g1839
ag3698
aa(lp4695
g1840
ag203
aatp4696
Rp4697
ag53
((lp4698
(lp4699
g1836
ag4070
aa(lp4700
g1837
ag4085
aa(lp4701
g1838
ag4068
aa(lp4702
g1839
ag4073
aa(lp4703
g1840
ag203
aatp4704
Rp4705
ag53
((lp4706
(lp4707
g1836
ag2551
aa(lp4708
g1837
ag2566
aa(lp4709
g1838
ag2549
aa(lp4710
g1839
ag2554
aa(lp4711
g1840
ag203
aatp4712
Rp4713
ag53
((lp4714
(lp4715
g1836
ag2947
aa(lp4716
g1837
ag2962
aa(lp4717
g1838
ag2945
aa(lp4718
g1839
ag2950
aa(lp4719
g1840
ag203
aatp4720
Rp4721
ag53
((lp4722
(lp4723
g1836
ag3047
aa(lp4724
g1837
ag3062
aa(lp4725
g1838
ag3045
aa(lp4726
g1839
ag3050
aa(lp4727
g1840
ag203
aatp4728
Rp4729
ag53
((lp4730
(lp4731
g1836
ag2749
aa(lp4732
g1837
ag2764
aa(lp4733
g1838
ag2747
aa(lp4734
g1839
ag2752
aa(lp4735
g1840
ag203
aatp4736
Rp4737
ag53
((lp4738
(lp4739
g1836
ag2352
aa(lp4740
g1837
ag2367
aa(lp4741
g1838
ag2350
aa(lp4742
g1839
ag2355
aa(lp4743
g1840
ag203
aatp4744
Rp4745
ag53
((lp4746
(lp4747
g1836
ag2626
aa(lp4748
g1837
ag2641
aa(lp4749
g1838
ag2624
aa(lp4750
g1839
ag2629
aa(lp4751
g1840
ag203
aatp4752
Rp4753
ag53
((lp4754
(lp4755
g1836
ag2922
aa(lp4756
g1837
ag2937
aa(lp4757
g1838
ag2920
aa(lp4758
g1839
ag2925
aa(lp4759
g1840
ag203
aatp4760
Rp4761
ag53
((lp4762
(lp4763
g1836
ag2501
aa(lp4764
g1837
ag2516
aa(lp4765
g1838
ag2499
aa(lp4766
g1839
ag2504
aa(lp4767
g1840
ag203
aatp4768
Rp4769
ag53
((lp4770
(lp4771
g1836
ag2847
aa(lp4772
g1837
ag2862
aa(lp4773
g1838
ag2845
aa(lp4774
g1839
ag2850
aa(lp4775
g1840
ag203
aatp4776
Rp4777
ag53
((lp4778
(lp4779
g1836
ag2377
aa(lp4780
g1837
ag2392
aa(lp4781
g1838
ag2375
aa(lp4782
g1839
ag2380
aa(lp4783
g1840
ag203
aatp4784
Rp4785
ag53
((lp4786
(lp4787
g1836
ag2724
aa(lp4788
g1837
ag2739
aa(lp4789
g1838
ag2722
aa(lp4790
g1839
ag2727
aa(lp4791
g1840
ag203
aatp4792
Rp4793
ag53
((lp4794
(lp4795
g1836
ag3372
aa(lp4796
g1837
ag3387
aa(lp4797
g1838
ag3370
aa(lp4798
g1839
ag3375
aa(lp4799
g1840
ag203
aatp4800
Rp4801
ag53
((lp4802
(lp4803
g1836
ag2872
aa(lp4804
g1837
ag2887
aa(lp4805
g1838
ag2870
aa(lp4806
g1839
ag2875
aa(lp4807
g1840
ag203
aatp4808
Rp4809
ag53
((lp4810
(lp4811
g1836
ag3172
aa(lp4812
g1837
ag3187
aa(lp4813
g1838
ag3170
aa(lp4814
g1839
ag3175
aa(lp4815
g1840
ag203
aatp4816
Rp4817
ag53
((lp4818
(lp4819
g1836
ag2451
aa(lp4820
g1837
ag2466
aa(lp4821
g1838
ag2449
aa(lp4822
g1839
ag2454
aa(lp4823
g1840
ag203
aatp4824
Rp4825
ag53
((lp4826
(lp4827
g1836
ag1929
aa(lp4828
g1837
ag1944
aa(lp4829
g1838
ag1927
aa(lp4830
g1839
ag1932
aa(lp4831
g1840
ag203
aatp4832
Rp4833
ag53
((lp4834
(lp4835
g1836
ag2476
aa(lp4836
g1837
ag2491
aa(lp4837
g1838
ag2474
aa(lp4838
g1839
ag2479
aa(lp4839
g1840
ag203
aatp4840
Rp4841
ag53
((lp4842
(lp4843
g1836
ag3596
aa(lp4844
g1837
ag3611
aa(lp4845
g1838
ag3594
aa(lp4846
g1839
ag3599
aa(lp4847
g1840
ag203
aatp4848
Rp4849
ag53
((lp4850
(lp4851
g1836
ag3945
aa(lp4852
g1837
ag3960
aa(lp4853
g1838
ag3943
aa(lp4854
g1839
ag3948
aa(lp4855
g1840
ag203
aatp4856
Rp4857
ag53
((lp4858
(lp4859
g1836
ag1879
aa(lp4860
g1837
ag1894
aa(lp4861
g1838
ag1877
aa(lp4862
g1839
ag1882
aa(lp4863
g1840
ag203
aatp4864
Rp4865
ag53
((lp4866
(lp4867
g1836
ag3870
aa(lp4868
g1837
ag3885
aa(lp4869
g1838
ag3868
aa(lp4870
g1839
ag3873
aa(lp4871
g1840
ag203
aatp4872
Rp4873
ag53
((lp4874
(lp4875
g1836
ag3472
aa(lp4876
g1837
ag3487
aa(lp4877
g1838
ag3470
aa(lp4878
g1839
ag3475
aa(lp4879
g1840
ag203
aatp4880
Rp4881
ag53
((lp4882
(lp4883
g1836
ag2302
aa(lp4884
g1837
ag2317
aa(lp4885
g1838
ag2300
aa(lp4886
g1839
ag2305
aa(lp4887
g1840
ag203
aatp4888
Rp4889
ag53
((lp4890
(lp4891
g1836
ag3571
aa(lp4892
g1837
ag3586
aa(lp4893
g1838
ag3569
aa(lp4894
g1839
ag3574
aa(lp4895
g1840
ag203
aatp4896
Rp4897
ag53
((lp4898
(lp4899
g1836
ag2774
aa(lp4900
g1837
ag2789
aa(lp4901
g1838
ag2772
aa(lp4902
g1839
ag2777
aa(lp4903
g1840
ag203
aatp4904
Rp4905
ag53
((lp4906
(lp4907
g1836
ag3422
aa(lp4908
g1837
ag3437
aa(lp4909
g1838
ag3420
aa(lp4910
g1839
ag3425
aa(lp4911
g1840
ag203
aatp4912
Rp4913
ag53
((lp4914
(lp4915
g1836
ag2651
aa(lp4916
g1837
ag2666
aa(lp4917
g1838
ag2649
aa(lp4918
g1839
ag2654
aa(lp4919
g1840
ag203
aatp4920
Rp4921
ag53
((lp4922
(lp4923
g1836
ag2601
aa(lp4924
g1837
ag2616
aa(lp4925
g1838
ag2599
aa(lp4926
g1839
ag2604
aa(lp4927
g1840
ag203
aatp4928
Rp4929
ag53
((lp4930
(lp4931
g1836
ag2402
aa(lp4932
g1837
ag2417
aa(lp4933
g1838
ag2400
aa(lp4934
g1839
ag2405
aa(lp4935
g1840
ag203
aatp4936
Rp4937
ag53
((lp4938
(lp4939
g1836
ag3546
aa(lp4940
g1837
ag3561
aa(lp4941
g1838
ag3544
aa(lp4942
g1839
ag3549
aa(lp4943
g1840
ag203
aatp4944
Rp4945
ag53
((lp4946
(lp4947
g1836
ag3497
aa(lp4948
g1837
ag3512
aa(lp4949
g1838
ag3495
aa(lp4950
g1839
ag3500
aa(lp4951
g1840
ag203
aatp4952
Rp4953
ag53
((lp4954
(lp4955
g1836
ag2897
aa(lp4956
g1837
ag2912
aa(lp4957
g1838
ag2895
aa(lp4958
g1839
ag2900
aa(lp4959
g1840
ag203
aatp4960
Rp4961
ag53
((lp4962
(lp4963
g1836
ag2004
aa(lp4964
g1837
ag2690
aa(lp4965
g1838
ag2674
aa(lp4966
g1839
ag2678
aa(lp4967
g1840
ag1670
aatp4968
Rp4969
ag53
((lp4970
(lp4971
g1836
ag2004
aa(lp4972
g1837
ag2837
aa(lp4973
g1838
ag2821
aa(lp4974
g1839
ag2825
aa(lp4975
g1840
ag1670
aatp4976
Rp4977
ag53
((lp4978
(lp4979
g1836
ag2004
aa(lp4980
g1837
ag2292
aa(lp4981
g1838
ag2276
aa(lp4982
g1839
ag2280
aa(lp4983
g1840
ag1670
aatp4984
Rp4985
ag53
((lp4986
(lp4987
g1836
ag2004
aa(lp4988
g1837
ag2813
aa(lp4989
g1838
ag2797
aa(lp4990
g1839
ag2801
aa(lp4991
g1840
ag1670
aatp4992
Rp4993
ag53
((lp4994
(lp4995
g1836
ag2004
aa(lp4996
g1837
ag2714
aa(lp4997
g1838
ag2698
aa(lp4998
g1839
ag2702
aa(lp4999
g1840
ag1670
aatp5000
Rp5001
ag53
((lp5002
(lp5003
g1836
ag2004
aa(lp5004
g1837
ag2068
aa(lp5005
g1838
ag2052
aa(lp5006
g1839
ag2056
aa(lp5007
g1840
ag1670
aatp5008
Rp5009
ag53
((lp5010
(lp5011
g1836
ag2004
aa(lp5012
g1837
ag3635
aa(lp5013
g1838
ag3619
aa(lp5014
g1839
ag3623
aa(lp5015
g1840
ag1670
aatp5016
Rp5017
ag53
((lp5018
(lp5019
g1836
ag2004
aa(lp5020
g1837
ag3536
aa(lp5021
g1838
ag3520
aa(lp5022
g1839
ag3524
aa(lp5023
g1840
ag1670
aatp5024
Rp5025
ag53
((lp5026
(lp5027
g1836
ag2004
aa(lp5028
g1837
ag2019
aa(lp5029
g1838
ag2002
aa(lp5030
g1839
ag2007
aa(lp5031
g1840
ag1670
aatp5032
Rp5033
ag53
((lp5034
(lp5035
g1836
ag2004
aa(lp5036
g1837
ag2441
aa(lp5037
g1838
ag2425
aa(lp5038
g1839
ag2429
aa(lp5039
g1840
ag1670
aatp5040
Rp5041
asg166
Nsg167
g4077
sg171
I90
sg172
I0
sg173
I90
sbag175
asS'savePickle'
p5042
I00
sb.