ccopy_reg
_reconstructor
p0
(cpsychopy.data.experiment
ExperimentHandler
p1
c__builtin__
object
p2
Ntp3
Rp4
(dp5
S'originPath'
p6
VC:\u005cUsers\u005cgost\u005cDesktop\u005clogo_experiment\u005cgo-nogo.psyexp
p7
sS'dataFileName'
p8
VC:\u005cUsers\u005cgost\u005cDesktop\u005clogo_experiment\u005cdata/42_go-nogo_2018_Jul_09_0750
p9
sS'runtimeInfo'
p10
NsS'name'
p11
S'go-nogo'
p12
sS'dataNames'
p13
(lp14
S'key_resp_3.keys'
p15
aS'key_resp_3.rt'
p16
aS'key_resp_2.keys'
p17
aS'key_resp_2.corr'
p18
aS'key_resp_2.rt'
p19
asS'autoLog'
p20
I01
sS'extraInfo'
p21
(dp22
S'date'
p23
V2018_Jul_09_0750
p24
sS'frameRate'
p25
cnumpy.core.multiarray
scalar
p26
(cnumpy
dtype
p27
(S'f8'
p28
I0
I1
tp29
Rp30
(I3
S'<'
p31
NNNI-1
I-1
I0
tp32
bS'f\x9b\xec\xa6\x12\x01N@'
p33
tp34
Rp35
sS'expName'
p36
g12
sS'session'
p37
S'001'
p38
sS'participant'
p39
g0
(cfuture.types.newstr
newstr
p40
c__builtin__
unicode
p41
V42
p42
tp43
Rp44
ssS'loopsUnfinished'
p45
(lp46
g0
(cpsychopy.data.trial
TrialHandler
p47
g2
Ntp48
Rp49
(dp50
S'origin'
p51
NsS'thisTrial'
p52
ccollections
OrderedDict
p53
((lp54
(lp55
S'pix'
p56
aVlogos/1.jpg
p57
aa(lp58
S'source'
p59
aVproperties1.xlsx
p60
aatp61
Rp62
sS'_exp'
p63
I444710864
sg11
S'trials_2'
p64
sg6
I-1
sS'thisRepN'
p65
I0
sg20
I01
sg21
g22
sS'data'
p66
g0
(cpsychopy.data.base
DataHandler
p67
c__builtin__
dict
p68
(dp69
S'ran'
p70
cnumpy.ma.core
_mareconstruct
p71
(cnumpy.ma.core
MaskedArray
p72
cnumpy
ndarray
p73
(I0
tp74
S'b'
p75
tp76
Rp77
(I1
(I4
I1
tp78
g27
(S'f4'
p79
I0
I1
tp80
Rp81
(I3
S'<'
p82
NNNI-1
I-1
I0
tp83
bI00
S'\x00\x00\x80?\x00\x00\x80?\x00\x00\x00\x00\x00\x00\x00\x00'
p84
S'\x00\x00\x00\x00'
p85
Ntp86
bsg15
cnumpy.core.multiarray
_reconstruct
p87
(g73
(I0
tp88
g75
tp89
Rp90
(I1
(I4
I1
tp91
g27
(S'O4'
p92
I0
I1
tp93
Rp94
(I3
S'|'
p95
NNNI-1
I-1
I63
tp96
bI00
(lp97
S'space'
p98
aS'space'
p99
aS'--'
p100
aS'--'
p101
atp102
bsS'order'
p103
g71
(g72
g73
g74
g75
tp104
Rp105
(I1
(I4
I1
tp106
g81
I00
S'\x00\x00\x80?\x00\x00\x00\x00\x00\x00\x00\x00\x00\x00\x00\x00'
p107
S'\x00\x00\x01\x01'
p108
Ntp109
bsg16
g71
(g72
g73
g74
g75
tp110
Rp111
(I1
(I4
I1
tp112
g81
I00
S'\x01\x12K@XB\x07A\x00\x00\x00\x00\x00\x00\x00\x00'
p113
S'\x00\x00\x01\x01'
p114
Ntp115
bstp116
Rp117
(dp118
S'isNumeric'
p119
(dp120
g70
I01
sg15
I00
sg103
I01
sg16
I01
ssS'trials'
p121
g49
sS'dataTypes'
p122
(lp123
g70
ag103
ag15
ag16
asS'dataShape'
p124
(lp125
I4
aI1
asbsS'method'
p126
S'random'
p127
sS'sequenceIndices'
p128
g87
(g73
(I0
tp129
g75
tp130
Rp131
(I1
(I4
I1
tp132
g27
(S'i4'
p133
I0
I1
tp134
Rp135
(I3
S'<'
p136
NNNI-1
I-1
I0
tp137
bI00
S'\x01\x00\x00\x00\x00\x00\x00\x00\x03\x00\x00\x00\x02\x00\x00\x00'
p138
tp139
bsS'finished'
p140
I00
sS'nReps'
p141
I1
sS'nRemaining'
p142
I2
sS'trialList'
p143
(lp144
g62
ag53
((lp145
(lp146
g56
aVlogos/2.jpg
p147
aa(lp148
g59
aVproperties2.xlsx
p149
aatp150
Rp151
ag53
((lp152
(lp153
g56
aVlogos/3.jpg
p154
aa(lp155
g59
aVproperties3.xlsx
p156
aatp157
Rp158
ag53
((lp159
(lp160
g56
aVlogos/4.jpg
p161
aa(lp162
g59
aVproperties4.xlsx
p163
aatp164
Rp165
asS'seed'
p166
NsS'thisIndex'
p167
g26
(g135
S'\x00\x00\x00\x00'
p168
tp169
Rp170
sS'thisN'
p171
I1
sS'thisTrialN'
p172
I1
sS'nTotal'
p173
I4
sbag0
(g47
g2
Ntp174
Rp175
(dp176
g51
Nsg52
g53
((lp177
(lp178
S'image1'
p179
aVfrogs/ab74.jpg
p180
aa(lp181
S'x'
p182
ag26
(g27
(S'i8'
p183
I0
I1
tp184
Rp185
(I3
S'<'
p186
NNNI-1
I-1
I0
tp187
bS'\x00\x00\x00\x00\x00\x00\x00\x00'
p188
tp189
Rp190
aa(lp191
S'y'
p192
ag26
(g185
S'\x00\x00\x00\x00\x00\x00\x00\x00'
p193
tp194
Rp195
aa(lp196
S'size'
p197
ag26
(g185
S'\x90\x01\x00\x00\x00\x00\x00\x00'
p198
tp199
Rp200
aa(lp201
S'answer'
p202
aVl
p203
aatp204
Rp205
sg63
I444710864
sg11
g121
sg6
I-1
sg65
I0
sg20
I01
sg21
g22
sg66
g0
(g67
g68
(dp206
g70
g71
(g72
g73
g74
g75
tp207
Rp208
(I1
(I90
I1
tp209
g81
I00
S'\x00\x00\x80?\x00\x00\x00\x00\x00\x00\x80?\x00\x00\x00\x00\x00\x00\x80?\x00\x00\x00\x00\x00\x00\x00\x00\x00\x00\x80?\x00\x00\x80?\x00\x00\x80?\x00\x00\x00\x00\x00\x00\x00\x00\x00\x00\x80?\x00\x00\x00\x00\x00\x00\x80?\x00\x00\x80?\x00\x00\x80?\x00\x00\x80?\x00\x00\x80?\x00\x00\x80?\x00\x00\x80?\x00\x00\x80?\x00\x00\x00\x00\x00\x00\x80?\x00\x00\x80?\x00\x00\x80?\x00\x00\x00\x00\x00\x00\x80?\x00\x00\x00\x00\x00\x00\x80?\x00\x00\x00\x00\x00\x00\x80?\x00\x00\x80?\x00\x00\x00\x00\x00\x00\x00\x00\x00\x00\x80?\x00\x00\x80?\x00\x00\x80?\x00\x00\x80?\x00\x00\x00\x00\x00\x00\x00\x00\x00\x00\x80?\x00\x00\x80?\x00\x00\x00\x00\x00\x00\x80?\x00\x00\x00\x00\x00\x00\x80?\x00\x00\x80?\x00\x00\x00\x00\x00\x00\x80?\x00\x00\x00\x00\x00\x00\x80?\x00\x00\x80?\x00\x00\x00\x00\x00\x00\x00\x00\x00\x00\x80?\x00\x00\x00\x00\x00\x00\x80?\x00\x00\x00\x00\x00\x00\x80?\x00\x00\x00\x00\x00\x00\x80?\x00\x00\x00\x00\x00\x00\x80?\x00\x00\x80?\x00\x00\x00\x00\x00\x00\x00\x00\x00\x00\x00\x00\x00\x00\x80?\x00\x00\x00\x00\x00\x00\x80?\x00\x00\x00\x00\x00\x00\x80?\x00\x00\x00\x00\x00\x00\x80?\x00\x00\x00\x00\x00\x00\x80?\x00\x00\x80?\x00\x00\x00\x00\x00\x00\x00\x00\x00\x00\x80?\x00\x00\x80?\x00\x00\x00\x00\x00\x00\x00\x00\x00\x00\x00\x00\x00\x00\x00\x00\x00\x00\x80?\x00\x00\x00\x00\x00\x00\x00\x00\x00\x00\x00\x00'
p210
S'\x00\x00\x00\x00\x00\x00\x00\x00\x00\x00\x00\x00\x00\x00\x00\x00\x00\x00\x00\x00\x00\x00\x00\x00\x00\x00\x00\x00\x00\x00\x00\x00\x00\x00\x00\x00\x00\x00\x00\x00\x00\x00\x00\x00\x00\x00\x00\x00\x00\x00\x00\x00\x00\x00\x00\x00\x00\x00\x00\x00\x00\x00\x00\x00\x00\x00\x00\x00\x00\x00\x00\x00\x00\x00\x00\x00\x00\x00\x00\x00\x00\x00\x00\x00\x00\x00\x00\x00\x00\x00'
p211
Ntp212
bsg18
g71
(g72
g73
g74
g75
tp213
Rp214
(I1
(I90
I1
tp215
g81
I00
S'\x00\x00\x00\x00\x00\x00\x00\x00\x00\x00\x00\x00\x00\x00\x00\x00\x00\x00\x00\x00\x00\x00\x00\x00\x00\x00\x00\x00\x00\x00\x00\x00\x00\x00\x00\x00\x00\x00\x00\x00\x00\x00\x00\x00\x00\x00\x00\x00\x00\x00\x00\x00\x00\x00\x00\x00\x00\x00\x00\x00\x00\x00\x00\x00\x00\x00\x00\x00\x00\x00\x00\x00\x00\x00\x00\x00\x00\x00\x00\x00\x00\x00\x00\x00\x00\x00\x00\x00\x00\x00\x00\x00\x00\x00\x00\x00\x00\x00\x00\x00\x00\x00\x00\x00\x00\x00\x00\x00\x00\x00\x00\x00\x00\x00\x00\x00\x00\x00\x00\x00\x00\x00\x00\x00\x00\x00\x00\x00\x00\x00\x00\x00\x00\x00\x00\x00\x00\x00\x00\x00\x00\x00\x00\x00\x00\x00\x00\x00\x00\x00\x00\x00\x00\x00\x00\x00\x00\x00\x00\x00\x00\x00\x00\x00\x00\x00\x00\x00\x00\x00\x00\x00\x00\x00\x00\x00\x00\x00\x00\x00\x00\x00\x00\x00\x00\x00\x00\x00\x00\x00\x00\x00\x00\x00\x00\x00\x00\x00\x00\x00\x00\x00\x00\x00\x00\x00\x00\x00\x00\x00\x00\x00\x00\x00\x00\x00\x00\x00\x00\x00\x00\x00\x00\x00\x00\x00\x00\x00\x00\x00\x00\x00\x00\x00\x00\x00\x00\x00\x00\x00\x00\x00\x00\x00\x00\x00\x00\x00\x00\x00\x00\x00\x00\x00\x00\x00\x00\x00\x00\x00\x00\x00\x00\x00\x00\x00\x00\x00\x00\x00\x00\x00\x00\x00\x00\x00\x00\x00\x00\x00\x00\x00\x00\x00\x00\x00\x00\x00\x00\x00\x00\x00\x00\x00\x00\x00\x00\x00\x00\x00\x00\x00\x00\x00\x00\x00\x00\x00\x00\x00\x00\x00\x00\x00\x00\x00\x00\x00\x00\x00\x00\x00\x00\x00\x00\x00\x00\x00\x00\x00\x00\x00\x00\x00\x00\x00\x00\x00\x00\x00\x00\x00\x00\x00\x00\x00\x00\x00\x00\x00\x00\x00\x00\x00\x00\x00\x00\x00\x00\x00'
p216
S'\x00\x01\x00\x01\x00\x01\x01\x00\x00\x00\x01\x01\x00\x01\x00\x00\x00\x00\x00\x00\x00\x00\x01\x00\x00\x00\x01\x00\x01\x00\x01\x00\x00\x01\x01\x00\x00\x00\x00\x01\x01\x00\x00\x01\x00\x01\x00\x00\x01\x00\x01\x00\x00\x01\x01\x00\x01\x00\x01\x00\x01\x00\x01\x00\x00\x01\x01\x01\x00\x01\x00\x01\x01\x01\x00\x01\x00\x00\x01\x01\x00\x00\x01\x01\x01\x01\x00\x01\x01\x01'
p217
Ntp218
bsg19
g87
(g73
(I0
tp219
g75
tp220
Rp221
(I1
(I90
I1
tp222
g94
I00
(lp223
(lp224
F0.3673100823070854
aaS'--'
p225
a(lp226
F0.3174284496635664
aaS'--'
p227
a(lp228
F18.199033426230017
aaS'--'
p229
aS'--'
p230
a(lp231
F0.4679234505747445
aa(lp232
F0.0180547591226059
aa(lp233
F0.40095943380583776
aaS'--'
p234
aS'--'
p235
a(lp236
F0.43453113808936905
aaS'--'
p237
a(lp238
F0.27942014498694334
aa(lp239
F0.5347455603841809
aa(lp240
F0.15340275468770415
aa(lp241
F0.4181788161440636
aa(lp242
F0.45128552972892066
aa(lp243
F0.3347522541153012
aa(lp244
F0.4337256599465036
aa(lp245
F8.249086864459969
aaS'--'
p246
a(lp247
F0.40112454566406086
aa(lp248
F0.15201224505290156
aa(lp249
F0.4178209250239888
aaS'--'
p250
a(lp251
F0.30410659978952026
aaS'--'
p252
a(lp253
F0.43443742595263757
aaS'--'
p254
a(lp255
F0.1227878915015026
aa(lp256
F0.1218681737955194
aaS'--'
p257
aS'--'
p258
a(lp259
F0.401215580306598
aa(lp260
F0.16808030683750985
aa(lp261
F0.4845720813682419
aa(lp262
F0.4502136413648259
aaS'--'
p263
aS'--'
p264
a(lp265
F1.0513172133578337
aa(lp266
F0.3011350324959494
aaS'--'
p267
a(lp268
F0.36793215241777943
aaS'--'
p269
a(lp270
F0.0010607321601128206
aa(lp271
F0.4009411376246135
aaS'--'
p272
a(lp273
F1.9937663577948115
aaS'--'
p274
a(lp275
F0.847822196832567
aa(lp276
F0.4370676133039524
aaS'--'
p277
aS'--'
p278
a(lp279
F0.2155142676710966
aaS'--'
p280
a(lp281
F0.01794810579303885
aaS'--'
p282
a(lp283
F0.24288892211188795
aaS'--'
p284
a(lp285
F0.3633692637522472
aaS'--'
p286
a(lp287
F0.48808227033441653
aa(lp288
F0.6346011990681291
aaS'--'
p289
aS'--'
p290
aS'--'
p291
a(lp292
F0.3181794855190674
aaS'--'
p293
a(lp294
F0.4012267365178559
aaS'--'
p295
aS'--'
p296
aS'--'
p297
a(lp298
F0.43454720303270733
aaS'--'
p299
a(lp300
F0.5844741298715235
aa(lp301
F0.3643800161080435
aaS'--'
p302
aS'--'
p303
a(lp304
F0.2121959654687089
aa(lp305
F0.7171000109301531
aaS'--'
p306
aS'--'
p307
aS'--'
p308
aS'--'
p309
a(lp310
F0.04846881059347652
aaS'--'
p311
aS'--'
p312
aS'--'
p313
atp314
bsg103
g71
(g72
g73
g74
g75
tp315
Rp316
(I1
(I90
I1
tp317
g81
I00
S'\x00\x00\xf0A\x00\x00\x00\x00\x00\x00\x08B\x00\x00\x00\x00\x00\x00<B\x00\x00\x00\x00\x00\x00\x00\x00\x00\x00\xf8A\x00\x00\x14B\x00\x00\xb8A\x00\x00\x00\x00\x00\x00\x00\x00\x00\x00\x98A\x00\x00\x00\x00\x00\x00\x10A\x00\x00\x80A\x00\x000B\x00\x00PA\x00\x00$B\x00\x000A\x00\x00\xa8A\x00\x00(B\x00\x00\x00\x00\x00\x00\xc0A\x00\x00,B\x00\x00\x00B\x00\x00\x00\x00\x00\x00\xa0@\x00\x00\x00\x00\x00\x00\x90A\x00\x00\x00\x00\x00\x00\x00@\x00\x004B\x00\x00\x00\x00\x00\x00\x00\x00\x00\x00@A\x00\x00\x10B\x00\x00\xa0A\x00\x00\xb0A\x00\x00\x00\x00\x00\x00\x00\x00\x00\x00\x18B\x00\x00\x04B\x00\x00\x00\x00\x00\x00\xd0A\x00\x00\x00\x00\x00\x00\x1cB\x00\x00\xc8A\x00\x00\x00\x00\x00\x00\x00\x00\x00\x00\x00\x00\x00\x00@@\x00\x00\xd8A\x00\x00\x00\x00\x00\x00\x00\x00\x00\x00\x80?\x00\x00\x00\x00\x00\x00\xe0A\x00\x00\x00\x00\x00\x00\x80@\x00\x00\x00\x00\x00\x00\x00A\x00\x00\x00\x00\x00\x00\xe0@\x00\x00\xe8A\x00\x00\x00\x00\x00\x00\x00\x00\x00\x00\x00\x00\x00\x00 A\x00\x00\x00\x00\x00\x00 B\x00\x00\x00\x00\x00\x00@B\x00\x00\x00\x00\x00\x00`A\x00\x00\x00\x00\x00\x00pA\x00\x00\xc0@\x00\x00\x00\x00\x00\x00\x00\x00\x00\x008B\x00\x00\x88A\x00\x00\x00\x00\x00\x00\x00\x00\x00\x00\x00\x00\x00\x00\x00\x00\x00\x00\x0cB\x00\x00\x00\x00\x00\x00\x00\x00\x00\x00\x00\x00'
p318
S'\x00\x01\x00\x01\x00\x01\x01\x00\x00\x00\x01\x01\x00\x01\x00\x00\x00\x00\x00\x00\x00\x00\x01\x00\x00\x00\x01\x00\x01\x00\x01\x00\x00\x01\x01\x00\x00\x00\x00\x01\x01\x00\x00\x01\x00\x01\x00\x00\x01\x00\x01\x00\x00\x01\x01\x00\x01\x00\x01\x00\x01\x00\x01\x00\x00\x01\x01\x01\x00\x01\x00\x01\x00\x01\x00\x01\x00\x00\x01\x01\x00\x00\x01\x01\x01\x01\x00\x01\x01\x01'
p319
Ntp320
bsg17
g87
(g73
(I0
tp321
g75
tp322
Rp323
(I1
(I90
I1
tp324
g94
I00
(lp325
(lp326
S'l'
p327
aaS'--'
p328
a(lp329
S'l'
p330
aaS'--'
p331
a(lp332
S'l'
p333
aaS'--'
p334
aS'--'
p335
a(lp336
S'l'
p337
aa(lp338
S'l'
p339
aa(lp340
S'l'
p341
aaS'--'
p342
aS'--'
p343
a(lp344
S'l'
p345
aaS'--'
p346
a(lp347
S'l'
p348
aa(lp349
S'l'
p350
aa(lp351
S'l'
p352
aa(lp353
S'l'
p354
aa(lp355
S'l'
p356
aa(lp357
S'l'
p358
aa(lp359
S'l'
p360
aa(lp361
S'l'
p362
aaS'--'
p363
a(lp364
S'l'
p365
aa(lp366
S'l'
p367
aa(lp368
S'l'
p369
aaS'--'
p370
a(lp371
S'l'
p372
aaS'--'
p373
a(lp374
S'l'
p375
aaS'--'
p376
a(lp377
S'l'
p378
aa(lp379
S'l'
p380
aaS'--'
p381
aS'--'
p382
a(lp383
S'l'
p384
aa(lp385
S'l'
p386
aa(lp387
S'l'
p388
aa(lp389
S'l'
p390
aaS'--'
p391
aS'--'
p392
a(lp393
S'l'
p394
aa(lp395
S'l'
p396
aaS'--'
p397
a(lp398
S'l'
p399
aaS'--'
p400
a(lp401
S'l'
p402
aa(lp403
S'l'
p404
aaS'--'
p405
a(lp406
S'l'
p407
aaS'--'
p408
a(lp409
S'l'
p410
aa(lp411
S'l'
p412
aaS'--'
p413
aS'--'
p414
a(lp415
S'l'
p416
aaS'--'
p417
a(lp418
S'l'
p419
aaS'--'
p420
a(lp421
S'l'
p422
aaS'--'
p423
a(lp424
S'l'
p425
aaS'--'
p426
a(lp427
S'l'
p428
aa(lp429
S'l'
p430
aaS'--'
p431
aS'--'
p432
aS'--'
p433
a(lp434
S'l'
p435
aaS'--'
p436
a(lp437
S'l'
p438
aaS'--'
p439
aS'--'
p440
aS'--'
p441
a(lp442
S'l'
p443
aaS'--'
p444
a(lp445
S'l'
p446
aa(lp447
S'l'
p448
aaS'--'
p449
aS'--'
p450
a(lp451
S'l'
p452
aa(lp453
S'l'
p454
aaS'--'
p455
aS'--'
p456
aS'--'
p457
aS'--'
p458
a(lp459
S'l'
p460
aaS'--'
p461
aS'--'
p462
aS'--'
p463
atp464
bstp465
Rp466
(dp467
g119
(dp468
g70
I01
sg18
I01
sg19
I00
sg103
I01
sg17
I00
ssg121
g175
sg122
(lp469
g70
ag103
ag17
ag18
ag19
asg124
(lp470
I90
aI1
asbsg126
g127
sg128
g87
(g73
(I0
tp471
g75
tp472
Rp473
(I1
(I90
I1
tp474
g135
I00
S'1\x00\x00\x007\x00\x00\x00\x1f\x00\x00\x003\x00\x00\x00;\x00\x00\x00\x1b\x00\x00\x00M\x00\x00\x00?\x00\x00\x00=\x00\x00\x00\x0e\x00\x00\x00D\x00\x00\x00\x13\x00\x00\x00#\x00\x00\x00\x11\x00\x00\x00J\x00\x00\x00L\x00\x00\x00\x0f\x00\x00\x00Q\x00\x00\x00\x1d\x00\x00\x00\x0c\x00\x00\x00%\x00\x00\x00\x14\x00\x00\x00&\x00\x00\x00\t\x00\x00\x00\x17\x00\x00\x00/\x00\x00\x00,\x00\x00\x004\x00\x00\x009\x00\x00\x00@\x00\x00\x00\x00\x00\x00\x00\x07\x00\x00\x00\x19\x00\x00\x00*\x00\x00\x00\x02\x00\x00\x00V\x00\x00\x00$\x00\x00\x00\x08\x00\x00\x00)\x00\x00\x00.\x00\x00\x00F\x00\x00\x00\x12\x00\x00\x00\x15\x00\x00\x00\x18\x00\x00\x00\x10\x00\x00\x00 \x00\x00\x00P\x00\x00\x00\x04\x00\x00\x00H\x00\x00\x00\x0b\x00\x00\x00\x16\x00\x00\x00:\x00\x00\x00A\x00\x00\x00!\x00\x00\x00+\x00\x00\x00(\x00\x00\x00I\x00\x00\x00C\x00\x00\x00K\x00\x00\x00\x03\x00\x00\x008\x00\x00\x00X\x00\x00\x00\n\x00\x00\x006\x00\x00\x00\x01\x00\x00\x000\x00\x00\x002\x00\x00\x00\x1c\x00\x00\x00S\x00\x00\x00-\x00\x00\x00\x1e\x00\x00\x00\x1a\x00\x00\x00<\x00\x00\x005\x00\x00\x00N\x00\x00\x00\x06\x00\x00\x00\r\x00\x00\x00U\x00\x00\x00\'\x00\x00\x00O\x00\x00\x00R\x00\x00\x00>\x00\x00\x00T\x00\x00\x00B\x00\x00\x00Y\x00\x00\x00"\x00\x00\x00W\x00\x00\x00E\x00\x00\x00G\x00\x00\x00\x05\x00\x00\x00'
p475
tp476
bsg140
I00
sg141
I1
sg142
I41
sg143
(lp477
g53
((lp478
(lp479
g179
aVfrogs/ab1.jpg
p480
aa(lp481
g182
ag26
(g185
S'\x00\x00\x00\x00\x00\x00\x00\x00'
p482
tp483
Rp484
aa(lp485
g192
ag26
(g185
S'\x00\x00\x00\x00\x00\x00\x00\x00'
p486
tp487
Rp488
aa(lp489
g197
ag26
(g185
S'\x90\x01\x00\x00\x00\x00\x00\x00'
p490
tp491
Rp492
aa(lp493
g202
ag203
aatp494
Rp495
ag53
((lp496
(lp497
g179
aVfrogs/ab2.jpg
p498
aa(lp499
g182
ag26
(g185
S'\x00\x00\x00\x00\x00\x00\x00\x00'
p500
tp501
Rp502
aa(lp503
g192
ag26
(g185
S'\x00\x00\x00\x00\x00\x00\x00\x00'
p504
tp505
Rp506
aa(lp507
g197
ag26
(g185
S'\x90\x01\x00\x00\x00\x00\x00\x00'
p508
tp509
Rp510
aa(lp511
g202
ag203
aatp512
Rp513
ag53
((lp514
(lp515
g179
aVfrogs/ab3.jpg
p516
aa(lp517
g182
ag26
(g185
S'\x00\x00\x00\x00\x00\x00\x00\x00'
p518
tp519
Rp520
aa(lp521
g192
ag26
(g185
S'\x00\x00\x00\x00\x00\x00\x00\x00'
p522
tp523
Rp524
aa(lp525
g197
ag26
(g185
S'\x90\x01\x00\x00\x00\x00\x00\x00'
p526
tp527
Rp528
aa(lp529
g202
ag203
aatp530
Rp531
ag53
((lp532
(lp533
g179
aVfrogs/ab4.jpg
p534
aa(lp535
g182
ag26
(g185
S'\x00\x00\x00\x00\x00\x00\x00\x00'
p536
tp537
Rp538
aa(lp539
g192
ag26
(g185
S'\x00\x00\x00\x00\x00\x00\x00\x00'
p540
tp541
Rp542
aa(lp543
g197
ag26
(g185
S'\x90\x01\x00\x00\x00\x00\x00\x00'
p544
tp545
Rp546
aa(lp547
g202
ag203
aatp548
Rp549
ag53
((lp550
(lp551
g179
aVfrogs/ab5.jpg
p552
aa(lp553
g182
ag26
(g185
S'\x00\x00\x00\x00\x00\x00\x00\x00'
p554
tp555
Rp556
aa(lp557
g192
ag26
(g185
S'\x00\x00\x00\x00\x00\x00\x00\x00'
p558
tp559
Rp560
aa(lp561
g197
ag26
(g185
S'\x90\x01\x00\x00\x00\x00\x00\x00'
p562
tp563
Rp564
aa(lp565
g202
ag203
aatp566
Rp567
ag53
((lp568
(lp569
g179
aVfrogs/ab6.jpg
p570
aa(lp571
g182
ag26
(g185
S'\x00\x00\x00\x00\x00\x00\x00\x00'
p572
tp573
Rp574
aa(lp575
g192
ag26
(g185
S'\x00\x00\x00\x00\x00\x00\x00\x00'
p576
tp577
Rp578
aa(lp579
g197
ag26
(g185
S'\x90\x01\x00\x00\x00\x00\x00\x00'
p580
tp581
Rp582
aa(lp583
g202
ag203
aatp584
Rp585
ag53
((lp586
(lp587
g179
aVfrogs/ab7.jpg
p588
aa(lp589
g182
ag26
(g185
S'\x00\x00\x00\x00\x00\x00\x00\x00'
p590
tp591
Rp592
aa(lp593
g192
ag26
(g185
S'\x00\x00\x00\x00\x00\x00\x00\x00'
p594
tp595
Rp596
aa(lp597
g197
ag26
(g185
S'\x90\x01\x00\x00\x00\x00\x00\x00'
p598
tp599
Rp600
aa(lp601
g202
ag203
aatp602
Rp603
ag53
((lp604
(lp605
g179
aVfrogs/ab8.jpg
p606
aa(lp607
g182
ag26
(g185
S'\x00\x00\x00\x00\x00\x00\x00\x00'
p608
tp609
Rp610
aa(lp611
g192
ag26
(g185
S'\x00\x00\x00\x00\x00\x00\x00\x00'
p612
tp613
Rp614
aa(lp615
g197
ag26
(g185
S'\x90\x01\x00\x00\x00\x00\x00\x00'
p616
tp617
Rp618
aa(lp619
g202
ag203
aatp620
Rp621
ag53
((lp622
(lp623
g179
aVfrogs/ab9.jpg
p624
aa(lp625
g182
ag26
(g185
S'\x00\x00\x00\x00\x00\x00\x00\x00'
p626
tp627
Rp628
aa(lp629
g192
ag26
(g185
S'\x00\x00\x00\x00\x00\x00\x00\x00'
p630
tp631
Rp632
aa(lp633
g197
ag26
(g185
S'\x90\x01\x00\x00\x00\x00\x00\x00'
p634
tp635
Rp636
aa(lp637
g202
ag203
aatp638
Rp639
ag53
((lp640
(lp641
g179
aVfrogs/ab10.jpg
p642
aa(lp643
g182
ag26
(g185
S'\x00\x00\x00\x00\x00\x00\x00\x00'
p644
tp645
Rp646
aa(lp647
g192
ag26
(g185
S'\x00\x00\x00\x00\x00\x00\x00\x00'
p648
tp649
Rp650
aa(lp651
g197
ag26
(g185
S'\x90\x01\x00\x00\x00\x00\x00\x00'
p652
tp653
Rp654
aa(lp655
g202
ag203
aatp656
Rp657
ag53
((lp658
(lp659
g179
aVfrogs/ab11.jpg
p660
aa(lp661
g182
ag26
(g185
S'\x00\x00\x00\x00\x00\x00\x00\x00'
p662
tp663
Rp664
aa(lp665
g192
ag26
(g185
S'\x00\x00\x00\x00\x00\x00\x00\x00'
p666
tp667
Rp668
aa(lp669
g197
ag26
(g185
S'\x90\x01\x00\x00\x00\x00\x00\x00'
p670
tp671
Rp672
aa(lp673
g202
ag203
aatp674
Rp675
ag53
((lp676
(lp677
g179
aVfrogs/ab12.jpg
p678
aa(lp679
g182
ag26
(g185
S'\x00\x00\x00\x00\x00\x00\x00\x00'
p680
tp681
Rp682
aa(lp683
g192
ag26
(g185
S'\x00\x00\x00\x00\x00\x00\x00\x00'
p684
tp685
Rp686
aa(lp687
g197
ag26
(g185
S'\x90\x01\x00\x00\x00\x00\x00\x00'
p688
tp689
Rp690
aa(lp691
g202
ag203
aatp692
Rp693
ag53
((lp694
(lp695
g179
aVfrogs/ab13.jpg
p696
aa(lp697
g182
ag26
(g185
S'\x00\x00\x00\x00\x00\x00\x00\x00'
p698
tp699
Rp700
aa(lp701
g192
ag26
(g185
S'\x00\x00\x00\x00\x00\x00\x00\x00'
p702
tp703
Rp704
aa(lp705
g197
ag26
(g185
S'\x90\x01\x00\x00\x00\x00\x00\x00'
p706
tp707
Rp708
aa(lp709
g202
ag203
aatp710
Rp711
ag53
((lp712
(lp713
g179
aVfrogs/ab14.jpg
p714
aa(lp715
g182
ag26
(g185
S'\x00\x00\x00\x00\x00\x00\x00\x00'
p716
tp717
Rp718
aa(lp719
g192
ag26
(g185
S'\x00\x00\x00\x00\x00\x00\x00\x00'
p720
tp721
Rp722
aa(lp723
g197
ag26
(g185
S'\x90\x01\x00\x00\x00\x00\x00\x00'
p724
tp725
Rp726
aa(lp727
g202
ag203
aatp728
Rp729
ag53
((lp730
(lp731
g179
aVfrogs/ab15.jpg
p732
aa(lp733
g182
ag26
(g185
S'\x00\x00\x00\x00\x00\x00\x00\x00'
p734
tp735
Rp736
aa(lp737
g192
ag26
(g185
S'\x00\x00\x00\x00\x00\x00\x00\x00'
p738
tp739
Rp740
aa(lp741
g197
ag26
(g185
S'\x90\x01\x00\x00\x00\x00\x00\x00'
p742
tp743
Rp744
aa(lp745
g202
ag203
aatp746
Rp747
ag53
((lp748
(lp749
g179
aVfrogs/ab16.jpg
p750
aa(lp751
g182
ag26
(g185
S'\x00\x00\x00\x00\x00\x00\x00\x00'
p752
tp753
Rp754
aa(lp755
g192
ag26
(g185
S'\x00\x00\x00\x00\x00\x00\x00\x00'
p756
tp757
Rp758
aa(lp759
g197
ag26
(g185
S'\x90\x01\x00\x00\x00\x00\x00\x00'
p760
tp761
Rp762
aa(lp763
g202
ag203
aatp764
Rp765
ag53
((lp766
(lp767
g179
aVfrogs/ab17.jpg
p768
aa(lp769
g182
ag26
(g185
S'\x00\x00\x00\x00\x00\x00\x00\x00'
p770
tp771
Rp772
aa(lp773
g192
ag26
(g185
S'\x00\x00\x00\x00\x00\x00\x00\x00'
p774
tp775
Rp776
aa(lp777
g197
ag26
(g185
S'\x90\x01\x00\x00\x00\x00\x00\x00'
p778
tp779
Rp780
aa(lp781
g202
ag203
aatp782
Rp783
ag53
((lp784
(lp785
g179
aVfrogs/ab18.jpg
p786
aa(lp787
g182
ag26
(g185
S'\x00\x00\x00\x00\x00\x00\x00\x00'
p788
tp789
Rp790
aa(lp791
g192
ag26
(g185
S'\x00\x00\x00\x00\x00\x00\x00\x00'
p792
tp793
Rp794
aa(lp795
g197
ag26
(g185
S'\x90\x01\x00\x00\x00\x00\x00\x00'
p796
tp797
Rp798
aa(lp799
g202
ag203
aatp800
Rp801
ag53
((lp802
(lp803
g179
aVfrogs/ab19.jpg
p804
aa(lp805
g182
ag26
(g185
S'\x00\x00\x00\x00\x00\x00\x00\x00'
p806
tp807
Rp808
aa(lp809
g192
ag26
(g185
S'\x00\x00\x00\x00\x00\x00\x00\x00'
p810
tp811
Rp812
aa(lp813
g197
ag26
(g185
S'\x90\x01\x00\x00\x00\x00\x00\x00'
p814
tp815
Rp816
aa(lp817
g202
ag203
aatp818
Rp819
ag53
((lp820
(lp821
g179
aVfrogs/ab20.jpg
p822
aa(lp823
g182
ag26
(g185
S'\x00\x00\x00\x00\x00\x00\x00\x00'
p824
tp825
Rp826
aa(lp827
g192
ag26
(g185
S'\x00\x00\x00\x00\x00\x00\x00\x00'
p828
tp829
Rp830
aa(lp831
g197
ag26
(g185
S'\x90\x01\x00\x00\x00\x00\x00\x00'
p832
tp833
Rp834
aa(lp835
g202
ag203
aatp836
Rp837
ag53
((lp838
(lp839
g179
aVfrogs/ab21.jpg
p840
aa(lp841
g182
ag26
(g185
S'\x00\x00\x00\x00\x00\x00\x00\x00'
p842
tp843
Rp844
aa(lp845
g192
ag26
(g185
S'\x00\x00\x00\x00\x00\x00\x00\x00'
p846
tp847
Rp848
aa(lp849
g197
ag26
(g185
S'\x90\x01\x00\x00\x00\x00\x00\x00'
p850
tp851
Rp852
aa(lp853
g202
ag203
aatp854
Rp855
ag53
((lp856
(lp857
g179
aVfrogs/ab22.jpg
p858
aa(lp859
g182
ag26
(g185
S'\x00\x00\x00\x00\x00\x00\x00\x00'
p860
tp861
Rp862
aa(lp863
g192
ag26
(g185
S'\x00\x00\x00\x00\x00\x00\x00\x00'
p864
tp865
Rp866
aa(lp867
g197
ag26
(g185
S'\x90\x01\x00\x00\x00\x00\x00\x00'
p868
tp869
Rp870
aa(lp871
g202
ag203
aatp872
Rp873
ag53
((lp874
(lp875
g179
aVfrogs/ab23.jpg
p876
aa(lp877
g182
ag26
(g185
S'\x00\x00\x00\x00\x00\x00\x00\x00'
p878
tp879
Rp880
aa(lp881
g192
ag26
(g185
S'\x00\x00\x00\x00\x00\x00\x00\x00'
p882
tp883
Rp884
aa(lp885
g197
ag26
(g185
S'\x90\x01\x00\x00\x00\x00\x00\x00'
p886
tp887
Rp888
aa(lp889
g202
ag203
aatp890
Rp891
ag53
((lp892
(lp893
g179
aVfrogs/ab24.jpg
p894
aa(lp895
g182
ag26
(g185
S'\x00\x00\x00\x00\x00\x00\x00\x00'
p896
tp897
Rp898
aa(lp899
g192
ag26
(g185
S'\x00\x00\x00\x00\x00\x00\x00\x00'
p900
tp901
Rp902
aa(lp903
g197
ag26
(g185
S'\x90\x01\x00\x00\x00\x00\x00\x00'
p904
tp905
Rp906
aa(lp907
g202
ag203
aatp908
Rp909
ag53
((lp910
(lp911
g179
aVfrogs/ab25.jpg
p912
aa(lp913
g182
ag26
(g185
S'\x00\x00\x00\x00\x00\x00\x00\x00'
p914
tp915
Rp916
aa(lp917
g192
ag26
(g185
S'\x00\x00\x00\x00\x00\x00\x00\x00'
p918
tp919
Rp920
aa(lp921
g197
ag26
(g185
S'\x90\x01\x00\x00\x00\x00\x00\x00'
p922
tp923
Rp924
aa(lp925
g202
ag203
aatp926
Rp927
ag53
((lp928
(lp929
g179
aVfrogs/ab26.jpg
p930
aa(lp931
g182
ag26
(g185
S'\x00\x00\x00\x00\x00\x00\x00\x00'
p932
tp933
Rp934
aa(lp935
g192
ag26
(g185
S'\x00\x00\x00\x00\x00\x00\x00\x00'
p936
tp937
Rp938
aa(lp939
g197
ag26
(g185
S'\x90\x01\x00\x00\x00\x00\x00\x00'
p940
tp941
Rp942
aa(lp943
g202
ag203
aatp944
Rp945
ag53
((lp946
(lp947
g179
aVfrogs/ab27.jpg
p948
aa(lp949
g182
ag26
(g185
S'\x00\x00\x00\x00\x00\x00\x00\x00'
p950
tp951
Rp952
aa(lp953
g192
ag26
(g185
S'\x00\x00\x00\x00\x00\x00\x00\x00'
p954
tp955
Rp956
aa(lp957
g197
ag26
(g185
S'\x90\x01\x00\x00\x00\x00\x00\x00'
p958
tp959
Rp960
aa(lp961
g202
ag203
aatp962
Rp963
ag53
((lp964
(lp965
g179
aVfrogs/ab28.jpg
p966
aa(lp967
g182
ag26
(g185
S'\x00\x00\x00\x00\x00\x00\x00\x00'
p968
tp969
Rp970
aa(lp971
g192
ag26
(g185
S'\x00\x00\x00\x00\x00\x00\x00\x00'
p972
tp973
Rp974
aa(lp975
g197
ag26
(g185
S'\x90\x01\x00\x00\x00\x00\x00\x00'
p976
tp977
Rp978
aa(lp979
g202
ag203
aatp980
Rp981
ag53
((lp982
(lp983
g179
aVfrogs/ab29.jpg
p984
aa(lp985
g182
ag26
(g185
S'\x00\x00\x00\x00\x00\x00\x00\x00'
p986
tp987
Rp988
aa(lp989
g192
ag26
(g185
S'\x00\x00\x00\x00\x00\x00\x00\x00'
p990
tp991
Rp992
aa(lp993
g197
ag26
(g185
S'\x90\x01\x00\x00\x00\x00\x00\x00'
p994
tp995
Rp996
aa(lp997
g202
ag203
aatp998
Rp999
ag53
((lp1000
(lp1001
g179
aVfrogs/ab30.jpg
p1002
aa(lp1003
g182
ag26
(g185
S'\x00\x00\x00\x00\x00\x00\x00\x00'
p1004
tp1005
Rp1006
aa(lp1007
g192
ag26
(g185
S'\x00\x00\x00\x00\x00\x00\x00\x00'
p1008
tp1009
Rp1010
aa(lp1011
g197
ag26
(g185
S'\x90\x01\x00\x00\x00\x00\x00\x00'
p1012
tp1013
Rp1014
aa(lp1015
g202
ag203
aatp1016
Rp1017
ag53
((lp1018
(lp1019
g179
aVfrogs/ab31.jpg
p1020
aa(lp1021
g182
ag26
(g185
S'\x00\x00\x00\x00\x00\x00\x00\x00'
p1022
tp1023
Rp1024
aa(lp1025
g192
ag26
(g185
S'\x00\x00\x00\x00\x00\x00\x00\x00'
p1026
tp1027
Rp1028
aa(lp1029
g197
ag26
(g185
S'\x90\x01\x00\x00\x00\x00\x00\x00'
p1030
tp1031
Rp1032
aa(lp1033
g202
ag203
aatp1034
Rp1035
ag53
((lp1036
(lp1037
g179
aVfrogs/ab32.jpg
p1038
aa(lp1039
g182
ag26
(g185
S'\x00\x00\x00\x00\x00\x00\x00\x00'
p1040
tp1041
Rp1042
aa(lp1043
g192
ag26
(g185
S'\x00\x00\x00\x00\x00\x00\x00\x00'
p1044
tp1045
Rp1046
aa(lp1047
g197
ag26
(g185
S'\x90\x01\x00\x00\x00\x00\x00\x00'
p1048
tp1049
Rp1050
aa(lp1051
g202
ag203
aatp1052
Rp1053
ag53
((lp1054
(lp1055
g179
aVfrogs/ab33.jpg
p1056
aa(lp1057
g182
ag26
(g185
S'\x00\x00\x00\x00\x00\x00\x00\x00'
p1058
tp1059
Rp1060
aa(lp1061
g192
ag26
(g185
S'\x00\x00\x00\x00\x00\x00\x00\x00'
p1062
tp1063
Rp1064
aa(lp1065
g197
ag26
(g185
S'\x90\x01\x00\x00\x00\x00\x00\x00'
p1066
tp1067
Rp1068
aa(lp1069
g202
ag203
aatp1070
Rp1071
ag53
((lp1072
(lp1073
g179
aVfrogs/ab34.jpg
p1074
aa(lp1075
g182
ag26
(g185
S'\x00\x00\x00\x00\x00\x00\x00\x00'
p1076
tp1077
Rp1078
aa(lp1079
g192
ag26
(g185
S'\x00\x00\x00\x00\x00\x00\x00\x00'
p1080
tp1081
Rp1082
aa(lp1083
g197
ag26
(g185
S'\x90\x01\x00\x00\x00\x00\x00\x00'
p1084
tp1085
Rp1086
aa(lp1087
g202
ag203
aatp1088
Rp1089
ag53
((lp1090
(lp1091
g179
aVfrogs/ab35.jpg
p1092
aa(lp1093
g182
ag26
(g185
S'\x00\x00\x00\x00\x00\x00\x00\x00'
p1094
tp1095
Rp1096
aa(lp1097
g192
ag26
(g185
S'\x00\x00\x00\x00\x00\x00\x00\x00'
p1098
tp1099
Rp1100
aa(lp1101
g197
ag26
(g185
S'\x90\x01\x00\x00\x00\x00\x00\x00'
p1102
tp1103
Rp1104
aa(lp1105
g202
ag203
aatp1106
Rp1107
ag53
((lp1108
(lp1109
g179
aVfrogs/ab36.jpg
p1110
aa(lp1111
g182
ag26
(g185
S'\x00\x00\x00\x00\x00\x00\x00\x00'
p1112
tp1113
Rp1114
aa(lp1115
g192
ag26
(g185
S'\x00\x00\x00\x00\x00\x00\x00\x00'
p1116
tp1117
Rp1118
aa(lp1119
g197
ag26
(g185
S'\x90\x01\x00\x00\x00\x00\x00\x00'
p1120
tp1121
Rp1122
aa(lp1123
g202
ag203
aatp1124
Rp1125
ag53
((lp1126
(lp1127
g179
aVfrogs/ab37.jpg
p1128
aa(lp1129
g182
ag26
(g185
S'\x00\x00\x00\x00\x00\x00\x00\x00'
p1130
tp1131
Rp1132
aa(lp1133
g192
ag26
(g185
S'\x00\x00\x00\x00\x00\x00\x00\x00'
p1134
tp1135
Rp1136
aa(lp1137
g197
ag26
(g185
S'\x90\x01\x00\x00\x00\x00\x00\x00'
p1138
tp1139
Rp1140
aa(lp1141
g202
ag203
aatp1142
Rp1143
ag53
((lp1144
(lp1145
g179
aVfrogs/ab38.jpg
p1146
aa(lp1147
g182
ag26
(g185
S'\x00\x00\x00\x00\x00\x00\x00\x00'
p1148
tp1149
Rp1150
aa(lp1151
g192
ag26
(g185
S'\x00\x00\x00\x00\x00\x00\x00\x00'
p1152
tp1153
Rp1154
aa(lp1155
g197
ag26
(g185
S'\x90\x01\x00\x00\x00\x00\x00\x00'
p1156
tp1157
Rp1158
aa(lp1159
g202
ag203
aatp1160
Rp1161
ag53
((lp1162
(lp1163
g179
aVfrogs/ab39.jpg
p1164
aa(lp1165
g182
ag26
(g185
S'\x00\x00\x00\x00\x00\x00\x00\x00'
p1166
tp1167
Rp1168
aa(lp1169
g192
ag26
(g185
S'\x00\x00\x00\x00\x00\x00\x00\x00'
p1170
tp1171
Rp1172
aa(lp1173
g197
ag26
(g185
S'\x90\x01\x00\x00\x00\x00\x00\x00'
p1174
tp1175
Rp1176
aa(lp1177
g202
ag203
aatp1178
Rp1179
ag53
((lp1180
(lp1181
g179
aVfrogs/ab40.jpg
p1182
aa(lp1183
g182
ag26
(g185
S'\x00\x00\x00\x00\x00\x00\x00\x00'
p1184
tp1185
Rp1186
aa(lp1187
g192
ag26
(g185
S'\x00\x00\x00\x00\x00\x00\x00\x00'
p1188
tp1189
Rp1190
aa(lp1191
g197
ag26
(g185
S'\x90\x01\x00\x00\x00\x00\x00\x00'
p1192
tp1193
Rp1194
aa(lp1195
g202
ag203
aatp1196
Rp1197
ag53
((lp1198
(lp1199
g179
aVfrogs/ab41.jpg
p1200
aa(lp1201
g182
ag26
(g185
S'\x00\x00\x00\x00\x00\x00\x00\x00'
p1202
tp1203
Rp1204
aa(lp1205
g192
ag26
(g185
S'\x00\x00\x00\x00\x00\x00\x00\x00'
p1206
tp1207
Rp1208
aa(lp1209
g197
ag26
(g185
S'\x90\x01\x00\x00\x00\x00\x00\x00'
p1210
tp1211
Rp1212
aa(lp1213
g202
ag203
aatp1214
Rp1215
ag53
((lp1216
(lp1217
g179
aVfrogs/ab42.jpg
p1218
aa(lp1219
g182
ag26
(g185
S'\x00\x00\x00\x00\x00\x00\x00\x00'
p1220
tp1221
Rp1222
aa(lp1223
g192
ag26
(g185
S'\x00\x00\x00\x00\x00\x00\x00\x00'
p1224
tp1225
Rp1226
aa(lp1227
g197
ag26
(g185
S'\x90\x01\x00\x00\x00\x00\x00\x00'
p1228
tp1229
Rp1230
aa(lp1231
g202
ag203
aatp1232
Rp1233
ag53
((lp1234
(lp1235
g179
aVfrogs/ab43.jpg
p1236
aa(lp1237
g182
ag26
(g185
S'\x00\x00\x00\x00\x00\x00\x00\x00'
p1238
tp1239
Rp1240
aa(lp1241
g192
ag26
(g185
S'\x00\x00\x00\x00\x00\x00\x00\x00'
p1242
tp1243
Rp1244
aa(lp1245
g197
ag26
(g185
S'\x90\x01\x00\x00\x00\x00\x00\x00'
p1246
tp1247
Rp1248
aa(lp1249
g202
ag203
aatp1250
Rp1251
ag53
((lp1252
(lp1253
g179
aVfrogs/ab44.jpg
p1254
aa(lp1255
g182
ag26
(g185
S'\x00\x00\x00\x00\x00\x00\x00\x00'
p1256
tp1257
Rp1258
aa(lp1259
g192
ag26
(g185
S'\x00\x00\x00\x00\x00\x00\x00\x00'
p1260
tp1261
Rp1262
aa(lp1263
g197
ag26
(g185
S'\x90\x01\x00\x00\x00\x00\x00\x00'
p1264
tp1265
Rp1266
aa(lp1267
g202
ag203
aatp1268
Rp1269
ag53
((lp1270
(lp1271
g179
aVfrogs/ab45.jpg
p1272
aa(lp1273
g182
ag26
(g185
S'\x00\x00\x00\x00\x00\x00\x00\x00'
p1274
tp1275
Rp1276
aa(lp1277
g192
ag26
(g185
S'\x00\x00\x00\x00\x00\x00\x00\x00'
p1278
tp1279
Rp1280
aa(lp1281
g197
ag26
(g185
S'\x90\x01\x00\x00\x00\x00\x00\x00'
p1282
tp1283
Rp1284
aa(lp1285
g202
ag203
aatp1286
Rp1287
ag53
((lp1288
(lp1289
g179
aVfrogs/ab46.jpg
p1290
aa(lp1291
g182
ag26
(g185
S'\x00\x00\x00\x00\x00\x00\x00\x00'
p1292
tp1293
Rp1294
aa(lp1295
g192
ag26
(g185
S'\x00\x00\x00\x00\x00\x00\x00\x00'
p1296
tp1297
Rp1298
aa(lp1299
g197
ag26
(g185
S'\x90\x01\x00\x00\x00\x00\x00\x00'
p1300
tp1301
Rp1302
aa(lp1303
g202
ag203
aatp1304
Rp1305
ag53
((lp1306
(lp1307
g179
aVfrogs/ab47.jpg
p1308
aa(lp1309
g182
ag26
(g185
S'\x00\x00\x00\x00\x00\x00\x00\x00'
p1310
tp1311
Rp1312
aa(lp1313
g192
ag26
(g185
S'\x00\x00\x00\x00\x00\x00\x00\x00'
p1314
tp1315
Rp1316
aa(lp1317
g197
ag26
(g185
S'\x90\x01\x00\x00\x00\x00\x00\x00'
p1318
tp1319
Rp1320
aa(lp1321
g202
ag203
aatp1322
Rp1323
ag53
((lp1324
(lp1325
g179
aVfrogs/ab48.jpg
p1326
aa(lp1327
g182
ag26
(g185
S'\x00\x00\x00\x00\x00\x00\x00\x00'
p1328
tp1329
Rp1330
aa(lp1331
g192
ag26
(g185
S'\x00\x00\x00\x00\x00\x00\x00\x00'
p1332
tp1333
Rp1334
aa(lp1335
g197
ag26
(g185
S'\x90\x01\x00\x00\x00\x00\x00\x00'
p1336
tp1337
Rp1338
aa(lp1339
g202
ag203
aatp1340
Rp1341
ag53
((lp1342
(lp1343
g179
aVfrogs/ab49.jpg
p1344
aa(lp1345
g182
ag26
(g185
S'\x00\x00\x00\x00\x00\x00\x00\x00'
p1346
tp1347
Rp1348
aa(lp1349
g192
ag26
(g185
S'\x00\x00\x00\x00\x00\x00\x00\x00'
p1350
tp1351
Rp1352
aa(lp1353
g197
ag26
(g185
S'\x90\x01\x00\x00\x00\x00\x00\x00'
p1354
tp1355
Rp1356
aa(lp1357
g202
ag203
aatp1358
Rp1359
ag53
((lp1360
(lp1361
g179
aVfrogs/ab50.jpg
p1362
aa(lp1363
g182
ag26
(g185
S'\x00\x00\x00\x00\x00\x00\x00\x00'
p1364
tp1365
Rp1366
aa(lp1367
g192
ag26
(g185
S'\x00\x00\x00\x00\x00\x00\x00\x00'
p1368
tp1369
Rp1370
aa(lp1371
g197
ag26
(g185
S'\x90\x01\x00\x00\x00\x00\x00\x00'
p1372
tp1373
Rp1374
aa(lp1375
g202
ag203
aatp1376
Rp1377
ag53
((lp1378
(lp1379
g179
aVfrogs/ab51.jpg
p1380
aa(lp1381
g182
ag26
(g185
S'\x00\x00\x00\x00\x00\x00\x00\x00'
p1382
tp1383
Rp1384
aa(lp1385
g192
ag26
(g185
S'\x00\x00\x00\x00\x00\x00\x00\x00'
p1386
tp1387
Rp1388
aa(lp1389
g197
ag26
(g185
S'\x90\x01\x00\x00\x00\x00\x00\x00'
p1390
tp1391
Rp1392
aa(lp1393
g202
ag203
aatp1394
Rp1395
ag53
((lp1396
(lp1397
g179
aVfrogs/ab52.jpg
p1398
aa(lp1399
g182
ag26
(g185
S'\x00\x00\x00\x00\x00\x00\x00\x00'
p1400
tp1401
Rp1402
aa(lp1403
g192
ag26
(g185
S'\x00\x00\x00\x00\x00\x00\x00\x00'
p1404
tp1405
Rp1406
aa(lp1407
g197
ag26
(g185
S'\x90\x01\x00\x00\x00\x00\x00\x00'
p1408
tp1409
Rp1410
aa(lp1411
g202
ag203
aatp1412
Rp1413
ag53
((lp1414
(lp1415
g179
aVfrogs/ab53.jpg
p1416
aa(lp1417
g182
ag26
(g185
S'\x00\x00\x00\x00\x00\x00\x00\x00'
p1418
tp1419
Rp1420
aa(lp1421
g192
ag26
(g185
S'\x00\x00\x00\x00\x00\x00\x00\x00'
p1422
tp1423
Rp1424
aa(lp1425
g197
ag26
(g185
S'\x90\x01\x00\x00\x00\x00\x00\x00'
p1426
tp1427
Rp1428
aa(lp1429
g202
ag203
aatp1430
Rp1431
ag53
((lp1432
(lp1433
g179
aVfrogs/ab54.jpg
p1434
aa(lp1435
g182
ag26
(g185
S'\x00\x00\x00\x00\x00\x00\x00\x00'
p1436
tp1437
Rp1438
aa(lp1439
g192
ag26
(g185
S'\x00\x00\x00\x00\x00\x00\x00\x00'
p1440
tp1441
Rp1442
aa(lp1443
g197
ag26
(g185
S'\x90\x01\x00\x00\x00\x00\x00\x00'
p1444
tp1445
Rp1446
aa(lp1447
g202
ag203
aatp1448
Rp1449
ag53
((lp1450
(lp1451
g179
aVfrogs/ab55.jpg
p1452
aa(lp1453
g182
ag26
(g185
S'\x00\x00\x00\x00\x00\x00\x00\x00'
p1454
tp1455
Rp1456
aa(lp1457
g192
ag26
(g185
S'\x00\x00\x00\x00\x00\x00\x00\x00'
p1458
tp1459
Rp1460
aa(lp1461
g197
ag26
(g185
S'\x90\x01\x00\x00\x00\x00\x00\x00'
p1462
tp1463
Rp1464
aa(lp1465
g202
ag203
aatp1466
Rp1467
ag53
((lp1468
(lp1469
g179
aVfrogs/ab56.jpg
p1470
aa(lp1471
g182
ag26
(g185
S'\x00\x00\x00\x00\x00\x00\x00\x00'
p1472
tp1473
Rp1474
aa(lp1475
g192
ag26
(g185
S'\x00\x00\x00\x00\x00\x00\x00\x00'
p1476
tp1477
Rp1478
aa(lp1479
g197
ag26
(g185
S'\x90\x01\x00\x00\x00\x00\x00\x00'
p1480
tp1481
Rp1482
aa(lp1483
g202
ag203
aatp1484
Rp1485
ag53
((lp1486
(lp1487
g179
aVfrogs/ab57.jpg
p1488
aa(lp1489
g182
ag26
(g185
S'\x00\x00\x00\x00\x00\x00\x00\x00'
p1490
tp1491
Rp1492
aa(lp1493
g192
ag26
(g185
S'\x00\x00\x00\x00\x00\x00\x00\x00'
p1494
tp1495
Rp1496
aa(lp1497
g197
ag26
(g185
S'\x90\x01\x00\x00\x00\x00\x00\x00'
p1498
tp1499
Rp1500
aa(lp1501
g202
ag203
aatp1502
Rp1503
ag53
((lp1504
(lp1505
g179
aVfrogs/ab58.jpg
p1506
aa(lp1507
g182
ag26
(g185
S'\x00\x00\x00\x00\x00\x00\x00\x00'
p1508
tp1509
Rp1510
aa(lp1511
g192
ag26
(g185
S'\x00\x00\x00\x00\x00\x00\x00\x00'
p1512
tp1513
Rp1514
aa(lp1515
g197
ag26
(g185
S'\x90\x01\x00\x00\x00\x00\x00\x00'
p1516
tp1517
Rp1518
aa(lp1519
g202
ag203
aatp1520
Rp1521
ag53
((lp1522
(lp1523
g179
aVfrogs/ab60.jpg
p1524
aa(lp1525
g182
ag26
(g185
S'\x00\x00\x00\x00\x00\x00\x00\x00'
p1526
tp1527
Rp1528
aa(lp1529
g192
ag26
(g185
S'\x00\x00\x00\x00\x00\x00\x00\x00'
p1530
tp1531
Rp1532
aa(lp1533
g197
ag26
(g185
S'\x90\x01\x00\x00\x00\x00\x00\x00'
p1534
tp1535
Rp1536
aa(lp1537
g202
ag203
aatp1538
Rp1539
ag53
((lp1540
(lp1541
g179
aVfrogs/ab61.jpg
p1542
aa(lp1543
g182
ag26
(g185
S'\x00\x00\x00\x00\x00\x00\x00\x00'
p1544
tp1545
Rp1546
aa(lp1547
g192
ag26
(g185
S'\x00\x00\x00\x00\x00\x00\x00\x00'
p1548
tp1549
Rp1550
aa(lp1551
g197
ag26
(g185
S'\x90\x01\x00\x00\x00\x00\x00\x00'
p1552
tp1553
Rp1554
aa(lp1555
g202
ag203
aatp1556
Rp1557
ag53
((lp1558
(lp1559
g179
aVfrogs/ab62.jpg
p1560
aa(lp1561
g182
ag26
(g185
S'\x00\x00\x00\x00\x00\x00\x00\x00'
p1562
tp1563
Rp1564
aa(lp1565
g192
ag26
(g185
S'\x00\x00\x00\x00\x00\x00\x00\x00'
p1566
tp1567
Rp1568
aa(lp1569
g197
ag26
(g185
S'\x90\x01\x00\x00\x00\x00\x00\x00'
p1570
tp1571
Rp1572
aa(lp1573
g202
ag203
aatp1574
Rp1575
ag53
((lp1576
(lp1577
g179
aVfrogs/ab63.jpg
p1578
aa(lp1579
g182
ag26
(g185
S'\x00\x00\x00\x00\x00\x00\x00\x00'
p1580
tp1581
Rp1582
aa(lp1583
g192
ag26
(g185
S'\x00\x00\x00\x00\x00\x00\x00\x00'
p1584
tp1585
Rp1586
aa(lp1587
g197
ag26
(g185
S'\x90\x01\x00\x00\x00\x00\x00\x00'
p1588
tp1589
Rp1590
aa(lp1591
g202
ag203
aatp1592
Rp1593
ag53
((lp1594
(lp1595
g179
aVfrogs/ab64.jpg
p1596
aa(lp1597
g182
ag26
(g185
S'\x00\x00\x00\x00\x00\x00\x00\x00'
p1598
tp1599
Rp1600
aa(lp1601
g192
ag26
(g185
S'\x00\x00\x00\x00\x00\x00\x00\x00'
p1602
tp1603
Rp1604
aa(lp1605
g197
ag26
(g185
S'\x90\x01\x00\x00\x00\x00\x00\x00'
p1606
tp1607
Rp1608
aa(lp1609
g202
ag203
aatp1610
Rp1611
ag53
((lp1612
(lp1613
g179
aVfrogs/ab65.jpg
p1614
aa(lp1615
g182
ag26
(g185
S'\x00\x00\x00\x00\x00\x00\x00\x00'
p1616
tp1617
Rp1618
aa(lp1619
g192
ag26
(g185
S'\x00\x00\x00\x00\x00\x00\x00\x00'
p1620
tp1621
Rp1622
aa(lp1623
g197
ag26
(g185
S'\x90\x01\x00\x00\x00\x00\x00\x00'
p1624
tp1625
Rp1626
aa(lp1627
g202
ag203
aatp1628
Rp1629
ag53
((lp1630
(lp1631
g179
aVfrogs/ab66.jpg
p1632
aa(lp1633
g182
ag26
(g185
S'\x00\x00\x00\x00\x00\x00\x00\x00'
p1634
tp1635
Rp1636
aa(lp1637
g192
ag26
(g185
S'\x00\x00\x00\x00\x00\x00\x00\x00'
p1638
tp1639
Rp1640
aa(lp1641
g197
ag26
(g185
S'\x90\x01\x00\x00\x00\x00\x00\x00'
p1642
tp1643
Rp1644
aa(lp1645
g202
ag203
aatp1646
Rp1647
ag53
((lp1648
(lp1649
g179
aVfrogs/ab67.jpg
p1650
aa(lp1651
g182
ag26
(g185
S'\x00\x00\x00\x00\x00\x00\x00\x00'
p1652
tp1653
Rp1654
aa(lp1655
g192
ag26
(g185
S'\x00\x00\x00\x00\x00\x00\x00\x00'
p1656
tp1657
Rp1658
aa(lp1659
g197
ag26
(g185
S'\x90\x01\x00\x00\x00\x00\x00\x00'
p1660
tp1661
Rp1662
aa(lp1663
g202
ag203
aatp1664
Rp1665
ag53
((lp1666
(lp1667
g179
aVfrogs/ab68.jpg
p1668
aa(lp1669
g182
ag26
(g185
S'\x00\x00\x00\x00\x00\x00\x00\x00'
p1670
tp1671
Rp1672
aa(lp1673
g192
ag26
(g185
S'\x00\x00\x00\x00\x00\x00\x00\x00'
p1674
tp1675
Rp1676
aa(lp1677
g197
ag26
(g185
S'\x90\x01\x00\x00\x00\x00\x00\x00'
p1678
tp1679
Rp1680
aa(lp1681
g202
ag203
aatp1682
Rp1683
ag53
((lp1684
(lp1685
g179
aVfrogs/ab69.jpg
p1686
aa(lp1687
g182
ag26
(g185
S'\x00\x00\x00\x00\x00\x00\x00\x00'
p1688
tp1689
Rp1690
aa(lp1691
g192
ag26
(g185
S'\x00\x00\x00\x00\x00\x00\x00\x00'
p1692
tp1693
Rp1694
aa(lp1695
g197
ag26
(g185
S'\x90\x01\x00\x00\x00\x00\x00\x00'
p1696
tp1697
Rp1698
aa(lp1699
g202
ag203
aatp1700
Rp1701
ag53
((lp1702
(lp1703
g179
aVfrogs/ab70.jpg
p1704
aa(lp1705
g182
ag26
(g185
S'\x00\x00\x00\x00\x00\x00\x00\x00'
p1706
tp1707
Rp1708
aa(lp1709
g192
ag26
(g185
S'\x00\x00\x00\x00\x00\x00\x00\x00'
p1710
tp1711
Rp1712
aa(lp1713
g197
ag26
(g185
S'\x90\x01\x00\x00\x00\x00\x00\x00'
p1714
tp1715
Rp1716
aa(lp1717
g202
ag203
aatp1718
Rp1719
ag53
((lp1720
(lp1721
g179
aVfrogs/ab71.jpg
p1722
aa(lp1723
g182
ag26
(g185
S'\x00\x00\x00\x00\x00\x00\x00\x00'
p1724
tp1725
Rp1726
aa(lp1727
g192
ag26
(g185
S'\x00\x00\x00\x00\x00\x00\x00\x00'
p1728
tp1729
Rp1730
aa(lp1731
g197
ag26
(g185
S'\x90\x01\x00\x00\x00\x00\x00\x00'
p1732
tp1733
Rp1734
aa(lp1735
g202
ag203
aatp1736
Rp1737
ag53
((lp1738
(lp1739
g179
aVfrogs/ab72.jpg
p1740
aa(lp1741
g182
ag26
(g185
S'\x00\x00\x00\x00\x00\x00\x00\x00'
p1742
tp1743
Rp1744
aa(lp1745
g192
ag26
(g185
S'\x00\x00\x00\x00\x00\x00\x00\x00'
p1746
tp1747
Rp1748
aa(lp1749
g197
ag26
(g185
S'\x90\x01\x00\x00\x00\x00\x00\x00'
p1750
tp1751
Rp1752
aa(lp1753
g202
ag203
aatp1754
Rp1755
ag53
((lp1756
(lp1757
g179
aVfrogs/ab73.jpg
p1758
aa(lp1759
g182
ag26
(g185
S'\x00\x00\x00\x00\x00\x00\x00\x00'
p1760
tp1761
Rp1762
aa(lp1763
g192
ag26
(g185
S'\x00\x00\x00\x00\x00\x00\x00\x00'
p1764
tp1765
Rp1766
aa(lp1767
g197
ag26
(g185
S'\x90\x01\x00\x00\x00\x00\x00\x00'
p1768
tp1769
Rp1770
aa(lp1771
g202
ag203
aatp1772
Rp1773
ag205
ag53
((lp1774
(lp1775
g179
aVfrogs/ab75.jpg
p1776
aa(lp1777
g182
ag26
(g185
S'\x00\x00\x00\x00\x00\x00\x00\x00'
p1778
tp1779
Rp1780
aa(lp1781
g192
ag26
(g185
S'\x00\x00\x00\x00\x00\x00\x00\x00'
p1782
tp1783
Rp1784
aa(lp1785
g197
ag26
(g185
S'\x90\x01\x00\x00\x00\x00\x00\x00'
p1786
tp1787
Rp1788
aa(lp1789
g202
ag203
aatp1790
Rp1791
ag53
((lp1792
(lp1793
g179
aVfrogs/ab76.jpg
p1794
aa(lp1795
g182
ag26
(g185
S'\x00\x00\x00\x00\x00\x00\x00\x00'
p1796
tp1797
Rp1798
aa(lp1799
g192
ag26
(g185
S'\x00\x00\x00\x00\x00\x00\x00\x00'
p1800
tp1801
Rp1802
aa(lp1803
g197
ag26
(g185
S'\x90\x01\x00\x00\x00\x00\x00\x00'
p1804
tp1805
Rp1806
aa(lp1807
g202
ag203
aatp1808
Rp1809
ag53
((lp1810
(lp1811
g179
aVfrogs/ab77.jpg
p1812
aa(lp1813
g182
ag26
(g185
S'\x00\x00\x00\x00\x00\x00\x00\x00'
p1814
tp1815
Rp1816
aa(lp1817
g192
ag26
(g185
S'\x00\x00\x00\x00\x00\x00\x00\x00'
p1818
tp1819
Rp1820
aa(lp1821
g197
ag26
(g185
S'\x90\x01\x00\x00\x00\x00\x00\x00'
p1822
tp1823
Rp1824
aa(lp1825
g202
ag203
aatp1826
Rp1827
ag53
((lp1828
(lp1829
g179
aVfrogs/ab78.jpg
p1830
aa(lp1831
g182
ag26
(g185
S'\x00\x00\x00\x00\x00\x00\x00\x00'
p1832
tp1833
Rp1834
aa(lp1835
g192
ag26
(g185
S'\x00\x00\x00\x00\x00\x00\x00\x00'
p1836
tp1837
Rp1838
aa(lp1839
g197
ag26
(g185
S'\x90\x01\x00\x00\x00\x00\x00\x00'
p1840
tp1841
Rp1842
aa(lp1843
g202
ag203
aatp1844
Rp1845
ag53
((lp1846
(lp1847
g179
aVfrogs/ab79.jpg
p1848
aa(lp1849
g182
ag26
(g185
S'\x00\x00\x00\x00\x00\x00\x00\x00'
p1850
tp1851
Rp1852
aa(lp1853
g192
ag26
(g185
S'\x00\x00\x00\x00\x00\x00\x00\x00'
p1854
tp1855
Rp1856
aa(lp1857
g197
ag26
(g185
S'\x90\x01\x00\x00\x00\x00\x00\x00'
p1858
tp1859
Rp1860
aa(lp1861
g202
ag203
aatp1862
Rp1863
ag53
((lp1864
(lp1865
g179
aVfrogs/ab80.jpg
p1866
aa(lp1867
g182
ag26
(g185
S'\x00\x00\x00\x00\x00\x00\x00\x00'
p1868
tp1869
Rp1870
aa(lp1871
g192
ag26
(g185
S'\x00\x00\x00\x00\x00\x00\x00\x00'
p1872
tp1873
Rp1874
aa(lp1875
g197
ag26
(g185
S'\x90\x01\x00\x00\x00\x00\x00\x00'
p1876
tp1877
Rp1878
aa(lp1879
g202
ag203
aatp1880
Rp1881
ag53
((lp1882
(lp1883
g179
aVfrogs/ab81.jpg
p1884
aa(lp1885
g182
ag26
(g185
S'\x00\x00\x00\x00\x00\x00\x00\x00'
p1886
tp1887
Rp1888
aa(lp1889
g192
ag26
(g185
S'\x00\x00\x00\x00\x00\x00\x00\x00'
p1890
tp1891
Rp1892
aa(lp1893
g197
ag26
(g185
S'\x90\x01\x00\x00\x00\x00\x00\x00'
p1894
tp1895
Rp1896
aa(lp1897
g202
ag203
aatp1898
Rp1899
ag53
((lp1900
(lp1901
g179
aVlogos/1.jpg
p1902
aa(lp1903
g182
ag26
(g185
S'\x00\x00\x00\x00\x00\x00\x00\x00'
p1904
tp1905
Rp1906
aa(lp1907
g192
ag26
(g185
S'\x00\x00\x00\x00\x00\x00\x00\x00'
p1908
tp1909
Rp1910
aa(lp1911
g197
ag26
(g185
S'\x90\x01\x00\x00\x00\x00\x00\x00'
p1912
tp1913
Rp1914
aa(lp1915
g202
aVa
p1916
aatp1917
Rp1918
ag53
((lp1919
(lp1920
g179
ag1902
aa(lp1921
g182
ag26
(g185
S'\x00\x00\x00\x00\x00\x00\x00\x00'
p1922
tp1923
Rp1924
aa(lp1925
g192
ag26
(g185
S'\x00\x00\x00\x00\x00\x00\x00\x00'
p1926
tp1927
Rp1928
aa(lp1929
g197
ag26
(g185
S'\x90\x01\x00\x00\x00\x00\x00\x00'
p1930
tp1931
Rp1932
aa(lp1933
g202
ag1916
aatp1934
Rp1935
ag53
((lp1936
(lp1937
g179
ag1902
aa(lp1938
g182
ag26
(g185
S'\x00\x00\x00\x00\x00\x00\x00\x00'
p1939
tp1940
Rp1941
aa(lp1942
g192
ag26
(g185
S'\x00\x00\x00\x00\x00\x00\x00\x00'
p1943
tp1944
Rp1945
aa(lp1946
g197
ag26
(g185
S'\x90\x01\x00\x00\x00\x00\x00\x00'
p1947
tp1948
Rp1949
aa(lp1950
g202
ag1916
aatp1951
Rp1952
ag53
((lp1953
(lp1954
g179
ag1902
aa(lp1955
g182
ag26
(g185
S'\x00\x00\x00\x00\x00\x00\x00\x00'
p1956
tp1957
Rp1958
aa(lp1959
g192
ag26
(g185
S'\x00\x00\x00\x00\x00\x00\x00\x00'
p1960
tp1961
Rp1962
aa(lp1963
g197
ag26
(g185
S'\x90\x01\x00\x00\x00\x00\x00\x00'
p1964
tp1965
Rp1966
aa(lp1967
g202
ag1916
aatp1968
Rp1969
ag53
((lp1970
(lp1971
g179
ag1902
aa(lp1972
g182
ag26
(g185
S'\x00\x00\x00\x00\x00\x00\x00\x00'
p1973
tp1974
Rp1975
aa(lp1976
g192
ag26
(g185
S'\x00\x00\x00\x00\x00\x00\x00\x00'
p1977
tp1978
Rp1979
aa(lp1980
g197
ag26
(g185
S'\x90\x01\x00\x00\x00\x00\x00\x00'
p1981
tp1982
Rp1983
aa(lp1984
g202
ag1916
aatp1985
Rp1986
ag53
((lp1987
(lp1988
g179
ag1902
aa(lp1989
g182
ag26
(g185
S'\x00\x00\x00\x00\x00\x00\x00\x00'
p1990
tp1991
Rp1992
aa(lp1993
g192
ag26
(g185
S'\x00\x00\x00\x00\x00\x00\x00\x00'
p1994
tp1995
Rp1996
aa(lp1997
g197
ag26
(g185
S'\x90\x01\x00\x00\x00\x00\x00\x00'
p1998
tp1999
Rp2000
aa(lp2001
g202
ag1916
aatp2002
Rp2003
ag53
((lp2004
(lp2005
g179
ag1902
aa(lp2006
g182
ag26
(g185
S'\x00\x00\x00\x00\x00\x00\x00\x00'
p2007
tp2008
Rp2009
aa(lp2010
g192
ag26
(g185
S'\x00\x00\x00\x00\x00\x00\x00\x00'
p2011
tp2012
Rp2013
aa(lp2014
g197
ag26
(g185
S'\x90\x01\x00\x00\x00\x00\x00\x00'
p2015
tp2016
Rp2017
aa(lp2018
g202
ag1916
aatp2019
Rp2020
ag53
((lp2021
(lp2022
g179
ag1902
aa(lp2023
g182
ag26
(g185
S'\x00\x00\x00\x00\x00\x00\x00\x00'
p2024
tp2025
Rp2026
aa(lp2027
g192
ag26
(g185
S'\x00\x00\x00\x00\x00\x00\x00\x00'
p2028
tp2029
Rp2030
aa(lp2031
g197
ag26
(g185
S'\x90\x01\x00\x00\x00\x00\x00\x00'
p2032
tp2033
Rp2034
aa(lp2035
g202
ag1916
aatp2036
Rp2037
ag53
((lp2038
(lp2039
g179
ag1902
aa(lp2040
g182
ag26
(g185
S'\x00\x00\x00\x00\x00\x00\x00\x00'
p2041
tp2042
Rp2043
aa(lp2044
g192
ag26
(g185
S'\x00\x00\x00\x00\x00\x00\x00\x00'
p2045
tp2046
Rp2047
aa(lp2048
g197
ag26
(g185
S'\x90\x01\x00\x00\x00\x00\x00\x00'
p2049
tp2050
Rp2051
aa(lp2052
g202
ag1916
aatp2053
Rp2054
ag53
((lp2055
(lp2056
g179
ag1902
aa(lp2057
g182
ag26
(g185
S'\x00\x00\x00\x00\x00\x00\x00\x00'
p2058
tp2059
Rp2060
aa(lp2061
g192
ag26
(g185
S'\x00\x00\x00\x00\x00\x00\x00\x00'
p2062
tp2063
Rp2064
aa(lp2065
g197
ag26
(g185
S'\x90\x01\x00\x00\x00\x00\x00\x00'
p2066
tp2067
Rp2068
aa(lp2069
g202
ag1916
aatp2070
Rp2071
asg166
Nsg167
g26
(g135
S'H\x00\x00\x00'
p2072
tp2073
Rp2074
sg171
I48
sg172
I48
sg173
I90
sbasS'saveWideText'
p2075
I00
sS'thisEntry'
p2076
(dp2077
sS'version'
p2078
S''
p2079
sS'_paramNamesSoFar'
p2080
(lp2081
g56
ag59
aS'image1'
p2082
aS'x'
p2083
aS'y'
p2084
aS'size'
p2085
aS'answer'
p2086
asS'entries'
p2087
(lp2088
(dp2089
g19
(lp2090
F0.9841804985044291
asg18
I0
sg25
g35
sg17
(lp2091
S'l'
p2092
asg56
g147
sg2084
g26
(g185
S'\x00\x00\x00\x00\x00\x00\x00\x00'
p2093
tp2094
Rp2095
sg37
g38
sS'trials_2.thisIndex'
p2096
g26
(g135
S'\x01\x00\x00\x00'
p2097
tp2098
Rp2099
sg15
g99
sg23
g24
sg2082
Vfrogs/ab35.jpg
p2100
sg2085
g26
(g185
S'\x90\x01\x00\x00\x00\x00\x00\x00'
p2101
tp2102
Rp2103
sS'trials.thisIndex'
p2104
g26
(g135
S'"\x00\x00\x00'
p2105
tp2106
Rp2107
sg39
g44
sS'trials_2.thisRepN'
p2108
I0
sS'trials_2.thisTrialN'
p2109
I0
sS'trials.thisRepN'
p2110
I0
sS'trials.thisN'
p2111
I0
sg59
g149
sg36
g12
sS'trials.thisTrialN'
p2112
I0
sg2086
g203
sg2083
g26
(g185
S'\x00\x00\x00\x00\x00\x00\x00\x00'
p2113
tp2114
Rp2115
sg16
F8.453697055432713
sS'trials_2.thisN'
p2116
I0
sa(dp2117
g19
(lp2118
F0.10096278065611841
asg18
I0
sg25
g35
sg17
(lp2119
S'l'
p2120
asg56
g147
sg2084
g26
(g185
S'\x00\x00\x00\x00\x00\x00\x00\x00'
p2121
tp2122
Rp2123
sg37
g38
sS'trials_2.thisIndex'
p2124
g2099
sg23
g24
sg2082
Vfrogs/ab81.jpg
p2125
sg2085
g26
(g185
S'\x90\x01\x00\x00\x00\x00\x00\x00'
p2126
tp2127
Rp2128
sS'trials.thisIndex'
p2129
g26
(g135
S'O\x00\x00\x00'
p2130
tp2131
Rp2132
sg39
g44
sS'trials_2.thisRepN'
p2133
I0
sS'trials_2.thisTrialN'
p2134
I0
sS'trials.thisRepN'
p2135
I0
sS'trials.thisN'
p2136
I1
sg59
g149
sg36
g12
sS'trials.thisTrialN'
p2137
I1
sg2086
g203
sg2083
g26
(g185
S'\x00\x00\x00\x00\x00\x00\x00\x00'
p2138
tp2139
Rp2140
sS'trials_2.thisN'
p2141
I0
sa(dp2142
g19
(lp2143
F0.16784156401263317
asg18
I0
sg25
g35
sg17
(lp2144
S'l'
p2145
asg56
g147
sg2084
g26
(g185
S'\x00\x00\x00\x00\x00\x00\x00\x00'
p2146
tp2147
Rp2148
sg37
g38
sS'trials_2.thisIndex'
p2149
g2099
sg23
g24
sg2082
Vfrogs/ab80.jpg
p2150
sg2085
g26
(g185
S'\x90\x01\x00\x00\x00\x00\x00\x00'
p2151
tp2152
Rp2153
sS'trials.thisIndex'
p2154
g26
(g135
S'N\x00\x00\x00'
p2155
tp2156
Rp2157
sg39
g44
sS'trials_2.thisRepN'
p2158
I0
sS'trials_2.thisTrialN'
p2159
I0
sS'trials.thisRepN'
p2160
I0
sS'trials.thisN'
p2161
I2
sg59
g149
sg36
g12
sS'trials.thisTrialN'
p2162
I2
sg2086
g203
sg2083
g26
(g185
S'\x00\x00\x00\x00\x00\x00\x00\x00'
p2163
tp2164
Rp2165
sS'trials_2.thisN'
p2166
I0
sa(dp2167
g19
(lp2168
F14.429480053819134
asg18
I0
sg25
g35
sg17
(lp2169
S'a'
p2170
asg56
g147
sg2084
g26
(g185
S'\x00\x00\x00\x00\x00\x00\x00\x00'
p2171
tp2172
Rp2173
sg37
g38
sS'trials_2.thisIndex'
p2174
g2099
sg23
g24
sg2082
Vfrogs/ab53.jpg
p2175
sg2085
g26
(g185
S'\x90\x01\x00\x00\x00\x00\x00\x00'
p2176
tp2177
Rp2178
sS'trials.thisIndex'
p2179
g26
(g135
S'4\x00\x00\x00'
p2180
tp2181
Rp2182
sg39
g44
sS'trials_2.thisRepN'
p2183
I0
sS'trials_2.thisTrialN'
p2184
I0
sS'trials.thisRepN'
p2185
I0
sS'trials.thisN'
p2186
I3
sg59
g149
sg36
g12
sS'trials.thisTrialN'
p2187
I3
sg2086
g203
sg2083
g26
(g185
S'\x00\x00\x00\x00\x00\x00\x00\x00'
p2188
tp2189
Rp2190
sS'trials_2.thisN'
p2191
I0
sa(dp2192
g19
(lp2193
F0.15061905793118058
asg18
I0
sg25
g35
sg17
(lp2194
S'l'
p2195
asg56
g147
sg2084
g26
(g185
S'\x00\x00\x00\x00\x00\x00\x00\x00'
p2196
tp2197
Rp2198
sg37
g38
sS'trials_2.thisIndex'
p2199
g2099
sg23
g24
sg2082
Vfrogs/ab6.jpg
p2200
sg2085
g26
(g185
S'\x90\x01\x00\x00\x00\x00\x00\x00'
p2201
tp2202
Rp2203
sS'trials.thisIndex'
p2204
g26
(g135
S'\x05\x00\x00\x00'
p2205
tp2206
Rp2207
sg39
g44
sS'trials_2.thisRepN'
p2208
I0
sS'trials_2.thisTrialN'
p2209
I0
sS'trials.thisRepN'
p2210
I0
sS'trials.thisN'
p2211
I4
sg59
g149
sg36
g12
sS'trials.thisTrialN'
p2212
I4
sg2086
g203
sg2083
g26
(g185
S'\x00\x00\x00\x00\x00\x00\x00\x00'
p2213
tp2214
Rp2215
sS'trials_2.thisN'
p2216
I0
sa(dp2217
g19
(lp2218
F1.20084028551355
asg18
I0
sg25
g35
sg17
(lp2219
S'l'
p2220
asg56
g147
sg2084
g26
(g185
S'\x00\x00\x00\x00\x00\x00\x00\x00'
p2221
tp2222
Rp2223
sg37
g38
sS'trials_2.thisIndex'
p2224
g2099
sg23
g24
sg2082
Vfrogs/ab42.jpg
p2225
sg2085
g26
(g185
S'\x90\x01\x00\x00\x00\x00\x00\x00'
p2226
tp2227
Rp2228
sS'trials.thisIndex'
p2229
g26
(g135
S')\x00\x00\x00'
p2230
tp2231
Rp2232
sg39
g44
sS'trials_2.thisRepN'
p2233
I0
sS'trials_2.thisTrialN'
p2234
I0
sS'trials.thisRepN'
p2235
I0
sS'trials.thisN'
p2236
I5
sg59
g149
sg36
g12
sS'trials.thisTrialN'
p2237
I5
sg2086
g203
sg2083
g26
(g185
S'\x00\x00\x00\x00\x00\x00\x00\x00'
p2238
tp2239
Rp2240
sS'trials_2.thisN'
p2241
I0
sa(dp2242
g19
(lp2243
F0.051208328775828704
asg18
I0
sg25
g35
sg17
(lp2244
S'l'
p2245
asg56
g147
sg2084
g26
(g185
S'\x00\x00\x00\x00\x00\x00\x00\x00'
p2246
tp2247
Rp2248
sg37
g38
sS'trials_2.thisIndex'
p2249
g2099
sg23
g24
sg2082
Vfrogs/ab38.jpg
p2250
sg2085
g26
(g185
S'\x90\x01\x00\x00\x00\x00\x00\x00'
p2251
tp2252
Rp2253
sS'trials.thisIndex'
p2254
g26
(g135
S'%\x00\x00\x00'
p2255
tp2256
Rp2257
sg39
g44
sS'trials_2.thisRepN'
p2258
I0
sS'trials_2.thisTrialN'
p2259
I0
sS'trials.thisRepN'
p2260
I0
sS'trials.thisN'
p2261
I6
sg59
g149
sg36
g12
sS'trials.thisTrialN'
p2262
I6
sg2086
g203
sg2083
g26
(g185
S'\x00\x00\x00\x00\x00\x00\x00\x00'
p2263
tp2264
Rp2265
sS'trials_2.thisN'
p2266
I0
sa(dp2267
g19
(lp2268
F0.03393628913181601
asg18
I0
sg25
g35
sg17
(lp2269
S'l'
p2270
asg56
g147
sg2084
g26
(g185
S'\x00\x00\x00\x00\x00\x00\x00\x00'
p2271
tp2272
Rp2273
sg37
g38
sS'trials_2.thisIndex'
p2274
g2099
sg23
g24
sg2082
Vfrogs/ab51.jpg
p2275
sg2085
g26
(g185
S'\x90\x01\x00\x00\x00\x00\x00\x00'
p2276
tp2277
Rp2278
sS'trials.thisIndex'
p2279
g26
(g135
S'2\x00\x00\x00'
p2280
tp2281
Rp2282
sg39
g44
sS'trials_2.thisRepN'
p2283
I0
sS'trials_2.thisTrialN'
p2284
I0
sS'trials.thisRepN'
p2285
I0
sS'trials.thisN'
p2286
I7
sg59
g149
sg36
g12
sS'trials.thisTrialN'
p2287
I7
sg2086
g203
sg2083
g26
(g185
S'\x00\x00\x00\x00\x00\x00\x00\x00'
p2288
tp2289
Rp2290
sS'trials_2.thisN'
p2291
I0
sa(dp2292
g19
(lp2293
F1.43406748612324
asg18
I0
sg25
g35
sg17
(lp2294
S'a'
p2295
asg56
g147
sg2084
g26
(g185
S'\x00\x00\x00\x00\x00\x00\x00\x00'
p2296
tp2297
Rp2298
sg37
g38
sS'trials_2.thisIndex'
p2299
g2099
sg23
g24
sg2082
Vlogos/2.jpg
p2300
sg2085
g26
(g185
S'\x90\x01\x00\x00\x00\x00\x00\x00'
p2301
tp2302
Rp2303
sS'trials.thisIndex'
p2304
g26
(g135
S'Y\x00\x00\x00'
p2305
tp2306
Rp2307
sg39
g44
sS'trials_2.thisRepN'
p2308
I0
sS'trials_2.thisTrialN'
p2309
I0
sS'trials.thisRepN'
p2310
I0
sS'trials.thisN'
p2311
I8
sg59
g149
sg36
g12
sS'trials.thisTrialN'
p2312
I8
sg2086
g1916
sg2083
g26
(g185
S'\x00\x00\x00\x00\x00\x00\x00\x00'
p2313
tp2314
Rp2315
sS'trials_2.thisN'
p2316
I0
sa(dp2317
g19
(lp2318
F0.05108382551406976
asg18
I0
sg25
g35
sg17
(lp2319
S'l'
p2320
asg56
g147
sg2084
g26
(g185
S'\x00\x00\x00\x00\x00\x00\x00\x00'
p2321
tp2322
Rp2323
sg37
g38
sS'trials_2.thisIndex'
p2324
g2099
sg23
g24
sg2082
Vfrogs/ab1.jpg
p2325
sg2085
g26
(g185
S'\x90\x01\x00\x00\x00\x00\x00\x00'
p2326
tp2327
Rp2328
sS'trials.thisIndex'
p2329
g26
(g135
S'\x00\x00\x00\x00'
p2330
tp2331
Rp2332
sg39
g44
sS'trials_2.thisRepN'
p2333
I0
sS'trials_2.thisTrialN'
p2334
I0
sS'trials.thisRepN'
p2335
I0
sS'trials.thisN'
p2336
I9
sg59
g149
sg36
g12
sS'trials.thisTrialN'
p2337
I9
sg2086
g203
sg2083
g26
(g185
S'\x00\x00\x00\x00\x00\x00\x00\x00'
p2338
tp2339
Rp2340
sS'trials_2.thisN'
p2341
I0
sa(dp2342
g19
(lp2343
F1.10111272008362
asg18
I0
sg25
g35
sg17
(lp2344
S'l'
p2345
asg56
g147
sg2084
g26
(g185
S'\x00\x00\x00\x00\x00\x00\x00\x00'
p2346
tp2347
Rp2348
sg37
g38
sS'trials_2.thisIndex'
p2349
g2099
sg23
g24
sg2082
Vfrogs/ab23.jpg
p2350
sg2085
g26
(g185
S'\x90\x01\x00\x00\x00\x00\x00\x00'
p2351
tp2352
Rp2353
sS'trials.thisIndex'
p2354
g26
(g135
S'\x16\x00\x00\x00'
p2355
tp2356
Rp2357
sg39
g44
sS'trials_2.thisRepN'
p2358
I0
sS'trials_2.thisTrialN'
p2359
I0
sS'trials.thisRepN'
p2360
I0
sS'trials.thisN'
p2361
I10
sg59
g149
sg36
g12
sS'trials.thisTrialN'
p2362
I10
sg2086
g203
sg2083
g26
(g185
S'\x00\x00\x00\x00\x00\x00\x00\x00'
p2363
tp2364
Rp2365
sS'trials_2.thisN'
p2366
I0
sa(dp2367
g19
(lp2368
F0.0344972232269356
asg18
I0
sg25
g35
sg17
(lp2369
S'l'
p2370
asg56
g147
sg2084
g26
(g185
S'\x00\x00\x00\x00\x00\x00\x00\x00'
p2371
tp2372
Rp2373
sg37
g38
sS'trials_2.thisIndex'
p2374
g2099
sg23
g24
sg2082
Vfrogs/ab29.jpg
p2375
sg2085
g26
(g185
S'\x90\x01\x00\x00\x00\x00\x00\x00'
p2376
tp2377
Rp2378
sS'trials.thisIndex'
p2379
g26
(g135
S'\x1c\x00\x00\x00'
p2380
tp2381
Rp2382
sg39
g44
sS'trials_2.thisRepN'
p2383
I0
sS'trials_2.thisTrialN'
p2384
I0
sS'trials.thisRepN'
p2385
I0
sS'trials.thisN'
p2386
I11
sg59
g149
sg36
g12
sS'trials.thisTrialN'
p2387
I11
sg2086
g203
sg2083
g26
(g185
S'\x00\x00\x00\x00\x00\x00\x00\x00'
p2388
tp2389
Rp2390
sS'trials_2.thisN'
p2391
I0
sa(dp2392
g19
(lp2393
F0.001026817291858606
asg18
I0
sg25
g35
sg17
(lp2394
S'l'
p2395
asg56
g147
sg2084
g26
(g185
S'\x00\x00\x00\x00\x00\x00\x00\x00'
p2396
tp2397
Rp2398
sg37
g38
sS'trials_2.thisIndex'
p2399
g2099
sg23
g24
sg2082
Vfrogs/ab46.jpg
p2400
sg2085
g26
(g185
S'\x90\x01\x00\x00\x00\x00\x00\x00'
p2401
tp2402
Rp2403
sS'trials.thisIndex'
p2404
g26
(g135
S'-\x00\x00\x00'
p2405
tp2406
Rp2407
sg39
g44
sS'trials_2.thisRepN'
p2408
I0
sS'trials_2.thisTrialN'
p2409
I0
sS'trials.thisRepN'
p2410
I0
sS'trials.thisN'
p2411
I12
sg59
g149
sg36
g12
sS'trials.thisTrialN'
p2412
I12
sg2086
g203
sg2083
g26
(g185
S'\x00\x00\x00\x00\x00\x00\x00\x00'
p2413
tp2414
Rp2415
sS'trials_2.thisN'
p2416
I0
sa(dp2417
g19
(lp2418
F1.267568683186255
asg18
I0
sg25
g35
sg17
(lp2419
S'l'
p2420
asg56
g147
sg2084
g26
(g185
S'\x00\x00\x00\x00\x00\x00\x00\x00'
p2421
tp2422
Rp2423
sg37
g38
sS'trials_2.thisIndex'
p2424
g2099
sg23
g24
sg2082
Vfrogs/ab18.jpg
p2425
sg2085
g26
(g185
S'\x90\x01\x00\x00\x00\x00\x00\x00'
p2426
tp2427
Rp2428
sS'trials.thisIndex'
p2429
g26
(g135
S'\x11\x00\x00\x00'
p2430
tp2431
Rp2432
sg39
g44
sS'trials_2.thisRepN'
p2433
I0
sS'trials_2.thisTrialN'
p2434
I0
sS'trials.thisRepN'
p2435
I0
sS'trials.thisN'
p2436
I13
sg59
g149
sg36
g12
sS'trials.thisTrialN'
p2437
I13
sg2086
g203
sg2083
g26
(g185
S'\x00\x00\x00\x00\x00\x00\x00\x00'
p2438
tp2439
Rp2440
sS'trials_2.thisN'
p2441
I0
sa(dp2442
g19
(lp2443
F0.15055435192334699
asg18
I0
sg25
g35
sg17
(lp2444
S'l'
p2445
asg56
g147
sg2084
g26
(g185
S'\x00\x00\x00\x00\x00\x00\x00\x00'
p2446
tp2447
Rp2448
sg37
g38
sS'trials_2.thisIndex'
p2449
g2099
sg23
g24
sg2082
Vfrogs/ab22.jpg
p2450
sg2085
g26
(g185
S'\x90\x01\x00\x00\x00\x00\x00\x00'
p2451
tp2452
Rp2453
sS'trials.thisIndex'
p2454
g26
(g135
S'\x15\x00\x00\x00'
p2455
tp2456
Rp2457
sg39
g44
sS'trials_2.thisRepN'
p2458
I0
sS'trials_2.thisTrialN'
p2459
I0
sS'trials.thisRepN'
p2460
I0
sS'trials.thisN'
p2461
I14
sg59
g149
sg36
g12
sS'trials.thisTrialN'
p2462
I14
sg2086
g203
sg2083
g26
(g185
S'\x00\x00\x00\x00\x00\x00\x00\x00'
p2463
tp2464
Rp2465
sS'trials_2.thisN'
p2466
I0
sa(dp2467
g19
(lp2468
F0.9678955600538757
asg18
I0
sg25
g35
sg17
(lp2469
S'l'
p2470
asg56
g147
sg2084
g26
(g185
S'\x00\x00\x00\x00\x00\x00\x00\x00'
p2471
tp2472
Rp2473
sg37
g38
sS'trials_2.thisIndex'
p2474
g2099
sg23
g24
sg2082
Vfrogs/ab14.jpg
p2475
sg2085
g26
(g185
S'\x90\x01\x00\x00\x00\x00\x00\x00'
p2476
tp2477
Rp2478
sS'trials.thisIndex'
p2479
g26
(g135
S'\r\x00\x00\x00'
p2480
tp2481
Rp2482
sg39
g44
sS'trials_2.thisRepN'
p2483
I0
sS'trials_2.thisTrialN'
p2484
I0
sS'trials.thisRepN'
p2485
I0
sS'trials.thisN'
p2486
I15
sg59
g149
sg36
g12
sS'trials.thisTrialN'
p2487
I15
sg2086
g203
sg2083
g26
(g185
S'\x00\x00\x00\x00\x00\x00\x00\x00'
p2488
tp2489
Rp2490
sS'trials_2.thisN'
p2491
I0
sa(dp2492
g19
(lp2493
F0.11795859262201702
asg18
I0
sg25
g35
sg17
(lp2494
S'l'
p2495
asg56
g147
sg2084
g26
(g185
S'\x00\x00\x00\x00\x00\x00\x00\x00'
p2496
tp2497
Rp2498
sg37
g38
sS'trials_2.thisIndex'
p2499
g2099
sg23
g24
sg2082
Vfrogs/ab41.jpg
p2500
sg2085
g26
(g185
S'\x90\x01\x00\x00\x00\x00\x00\x00'
p2501
tp2502
Rp2503
sS'trials.thisIndex'
p2504
g26
(g135
S'(\x00\x00\x00'
p2505
tp2506
Rp2507
sg39
g44
sS'trials_2.thisRepN'
p2508
I0
sS'trials_2.thisTrialN'
p2509
I0
sS'trials.thisRepN'
p2510
I0
sS'trials.thisN'
p2511
I16
sg59
g149
sg36
g12
sS'trials.thisTrialN'
p2512
I16
sg2086
g203
sg2083
g26
(g185
S'\x00\x00\x00\x00\x00\x00\x00\x00'
p2513
tp2514
Rp2515
sS'trials_2.thisN'
p2516
I0
sa(dp2517
g19
(lp2518
F0.051159241469576955
asg18
I0
sg25
g35
sg17
(lp2519
S'l'
p2520
asg56
g147
sg2084
g26
(g185
S'\x00\x00\x00\x00\x00\x00\x00\x00'
p2521
tp2522
Rp2523
sg37
g38
sS'trials_2.thisIndex'
p2524
g2099
sg23
g24
sg2082
Vfrogs/ab7.jpg
p2525
sg2085
g26
(g185
S'\x90\x01\x00\x00\x00\x00\x00\x00'
p2526
tp2527
Rp2528
sS'trials.thisIndex'
p2529
g26
(g135
S'\x06\x00\x00\x00'
p2530
tp2531
Rp2532
sg39
g44
sS'trials_2.thisRepN'
p2533
I0
sS'trials_2.thisTrialN'
p2534
I0
sS'trials.thisRepN'
p2535
I0
sS'trials.thisN'
p2536
I17
sg59
g149
sg36
g12
sS'trials.thisTrialN'
p2537
I17
sg2086
g203
sg2083
g26
(g185
S'\x00\x00\x00\x00\x00\x00\x00\x00'
p2538
tp2539
Rp2540
sS'trials_2.thisN'
p2541
I0
sa(dp2542
g19
(lp2543
F2.933428681717487
asg18
I0
sg25
g35
sg17
(lp2544
S'l'
p2545
asg56
g147
sg2084
g26
(g185
S'\x00\x00\x00\x00\x00\x00\x00\x00'
p2546
tp2547
Rp2548
sg37
g38
sS'trials_2.thisIndex'
p2549
g2099
sg23
g24
sg2082
Vfrogs/ab68.jpg
p2550
sg2085
g26
(g185
S'\x90\x01\x00\x00\x00\x00\x00\x00'
p2551
tp2552
Rp2553
sS'trials.thisIndex'
p2554
g26
(g135
S'B\x00\x00\x00'
p2555
tp2556
Rp2557
sg39
g44
sS'trials_2.thisRepN'
p2558
I0
sS'trials_2.thisTrialN'
p2559
I0
sS'trials.thisRepN'
p2560
I0
sS'trials.thisN'
p2561
I18
sg59
g149
sg36
g12
sS'trials.thisTrialN'
p2562
I18
sg2086
g203
sg2083
g26
(g185
S'\x00\x00\x00\x00\x00\x00\x00\x00'
p2563
tp2564
Rp2565
sS'trials_2.thisN'
p2566
I0
sa(dp2567
g19
(lp2568
F0.01754380484635476
asg18
I0
sg25
g35
sg17
(lp2569
S'l'
p2570
asg56
g147
sg2084
g26
(g185
S'\x00\x00\x00\x00\x00\x00\x00\x00'
p2571
tp2572
Rp2573
sg37
g38
sS'trials_2.thisIndex'
p2574
g2099
sg23
g24
sg2082
Vfrogs/ab11.jpg
p2575
sg2085
g26
(g185
S'\x90\x01\x00\x00\x00\x00\x00\x00'
p2576
tp2577
Rp2578
sS'trials.thisIndex'
p2579
g26
(g135
S'\n\x00\x00\x00'
p2580
tp2581
Rp2582
sg39
g44
sS'trials_2.thisRepN'
p2583
I0
sS'trials_2.thisTrialN'
p2584
I0
sS'trials.thisRepN'
p2585
I0
sS'trials.thisN'
p2586
I19
sg59
g149
sg36
g12
sS'trials.thisTrialN'
p2587
I19
sg2086
g203
sg2083
g26
(g185
S'\x00\x00\x00\x00\x00\x00\x00\x00'
p2588
tp2589
Rp2590
sS'trials_2.thisN'
p2591
I0
sa(dp2592
g19
(lp2593
F0.00101655357866548
asg18
I0
sg25
g35
sg17
(lp2594
S'l'
p2595
asg56
g147
sg2084
g26
(g185
S'\x00\x00\x00\x00\x00\x00\x00\x00'
p2596
tp2597
Rp2598
sg37
g38
sS'trials_2.thisIndex'
p2599
g2099
sg23
g24
sg2082
Vfrogs/ab19.jpg
p2600
sg2085
g26
(g185
S'\x90\x01\x00\x00\x00\x00\x00\x00'
p2601
tp2602
Rp2603
sS'trials.thisIndex'
p2604
g26
(g135
S'\x12\x00\x00\x00'
p2605
tp2606
Rp2607
sg39
g44
sS'trials_2.thisRepN'
p2608
I0
sS'trials_2.thisTrialN'
p2609
I0
sS'trials.thisRepN'
p2610
I0
sS'trials.thisN'
p2611
I20
sg59
g149
sg36
g12
sS'trials.thisTrialN'
p2612
I20
sg2086
g203
sg2083
g26
(g185
S'\x00\x00\x00\x00\x00\x00\x00\x00'
p2613
tp2614
Rp2615
sS'trials_2.thisN'
p2616
I0
sa(dp2617
g19
(lp2618
F0.050549220068205614
asg18
I0
sg25
g35
sg17
(lp2619
S'l'
p2620
asg56
g147
sg2084
g26
(g185
S'\x00\x00\x00\x00\x00\x00\x00\x00'
p2621
tp2622
Rp2623
sg37
g38
sS'trials_2.thisIndex'
p2624
g2099
sg23
g24
sg2082
Vfrogs/ab60.jpg
p2625
sg2085
g26
(g185
S'\x90\x01\x00\x00\x00\x00\x00\x00'
p2626
tp2627
Rp2628
sS'trials.thisIndex'
p2629
g26
(g135
S':\x00\x00\x00'
p2630
tp2631
Rp2632
sg39
g44
sS'trials_2.thisRepN'
p2633
I0
sS'trials_2.thisTrialN'
p2634
I0
sS'trials.thisRepN'
p2635
I0
sS'trials.thisN'
p2636
I21
sg59
g149
sg36
g12
sS'trials.thisTrialN'
p2637
I21
sg2086
g203
sg2083
g26
(g185
S'\x00\x00\x00\x00\x00\x00\x00\x00'
p2638
tp2639
Rp2640
sS'trials_2.thisN'
p2641
I0
sa(dp2642
g19
(lp2643
F0.317578389083792
asg18
I0
sg25
g35
sg17
(lp2644
S'l'
p2645
asg56
g147
sg2084
g26
(g185
S'\x00\x00\x00\x00\x00\x00\x00\x00'
p2646
tp2647
Rp2648
sg37
g38
sS'trials_2.thisIndex'
p2649
g2099
sg23
g24
sg2082
Vfrogs/ab56.jpg
p2650
sg2085
g26
(g185
S'\x90\x01\x00\x00\x00\x00\x00\x00'
p2651
tp2652
Rp2653
sS'trials.thisIndex'
p2654
g26
(g135
S'7\x00\x00\x00'
p2655
tp2656
Rp2657
sg39
g44
sS'trials_2.thisRepN'
p2658
I0
sS'trials_2.thisTrialN'
p2659
I0
sS'trials.thisRepN'
p2660
I0
sS'trials.thisN'
p2661
I22
sg59
g149
sg36
g12
sS'trials.thisTrialN'
p2662
I22
sg2086
g203
sg2083
g26
(g185
S'\x00\x00\x00\x00\x00\x00\x00\x00'
p2663
tp2664
Rp2665
sS'trials_2.thisN'
p2666
I0
sa(dp2667
g19
(lp2668
F0.9174114922352601
asg18
I0
sg25
g35
sg17
(lp2669
S'l'
p2670
asg56
g147
sg2084
g26
(g185
S'\x00\x00\x00\x00\x00\x00\x00\x00'
p2671
tp2672
Rp2673
sg37
g38
sS'trials_2.thisIndex'
p2674
g2099
sg23
g24
sg2082
Vfrogs/ab17.jpg
p2675
sg2085
g26
(g185
S'\x90\x01\x00\x00\x00\x00\x00\x00'
p2676
tp2677
Rp2678
sS'trials.thisIndex'
p2679
g26
(g135
S'\x10\x00\x00\x00'
p2680
tp2681
Rp2682
sg39
g44
sS'trials_2.thisRepN'
p2683
I0
sS'trials_2.thisTrialN'
p2684
I0
sS'trials.thisRepN'
p2685
I0
sS'trials.thisN'
p2686
I23
sg59
g149
sg36
g12
sS'trials.thisTrialN'
p2687
I23
sg2086
g203
sg2083
g26
(g185
S'\x00\x00\x00\x00\x00\x00\x00\x00'
p2688
tp2689
Rp2690
sS'trials_2.thisN'
p2691
I0
sa(dp2692
g19
(lp2693
F0.1676456610148307
asg18
I0
sg25
g35
sg17
(lp2694
S'a'
p2695
asg56
g147
sg2084
g26
(g185
S'\x00\x00\x00\x00\x00\x00\x00\x00'
p2696
tp2697
Rp2698
sg37
g38
sS'trials_2.thisIndex'
p2699
g2099
sg23
g24
sg2082
g2300
sg2085
g26
(g185
S'\x90\x01\x00\x00\x00\x00\x00\x00'
p2700
tp2701
Rp2702
sS'trials.thisIndex'
p2703
g26
(g135
S'W\x00\x00\x00'
p2704
tp2705
Rp2706
sg39
g44
sS'trials_2.thisRepN'
p2707
I0
sS'trials_2.thisTrialN'
p2708
I0
sS'trials.thisRepN'
p2709
I0
sS'trials.thisN'
p2710
I24
sg59
g149
sg36
g12
sS'trials.thisTrialN'
p2711
I24
sg2086
g1916
sg2083
g26
(g185
S'\x00\x00\x00\x00\x00\x00\x00\x00'
p2712
tp2713
Rp2714
sS'trials_2.thisN'
p2715
I0
sa(dp2716
g19
(lp2717
F0.06767087404296035
asg18
I0
sg25
g35
sg17
(lp2718
S'l'
p2719
asg56
g147
sg2084
g26
(g185
S'\x00\x00\x00\x00\x00\x00\x00\x00'
p2720
tp2721
Rp2722
sg37
g38
sS'trials_2.thisIndex'
p2723
g2099
sg23
g24
sg2082
Vfrogs/ab71.jpg
p2724
sg2085
g26
(g185
S'\x90\x01\x00\x00\x00\x00\x00\x00'
p2725
tp2726
Rp2727
sS'trials.thisIndex'
p2728
g26
(g135
S'E\x00\x00\x00'
p2729
tp2730
Rp2731
sg39
g44
sS'trials_2.thisRepN'
p2732
I0
sS'trials_2.thisTrialN'
p2733
I0
sS'trials.thisRepN'
p2734
I0
sS'trials.thisN'
p2735
I25
sg59
g149
sg36
g12
sS'trials.thisTrialN'
p2736
I25
sg2086
g203
sg2083
g26
(g185
S'\x00\x00\x00\x00\x00\x00\x00\x00'
p2737
tp2738
Rp2739
sS'trials_2.thisN'
p2740
I0
sa(dp2741
g19
(lp2742
F0.1836347368589486
asg18
I0
sg25
g35
sg17
(lp2743
S'l'
p2744
asg56
g147
sg2084
g26
(g185
S'\x00\x00\x00\x00\x00\x00\x00\x00'
p2745
tp2746
Rp2747
sg37
g38
sS'trials_2.thisIndex'
p2748
g2099
sg23
g24
sg2082
Vfrogs/ab24.jpg
p2749
sg2085
g26
(g185
S'\x90\x01\x00\x00\x00\x00\x00\x00'
p2750
tp2751
Rp2752
sS'trials.thisIndex'
p2753
g26
(g135
S'\x17\x00\x00\x00'
p2754
tp2755
Rp2756
sg39
g44
sS'trials_2.thisRepN'
p2757
I0
sS'trials_2.thisTrialN'
p2758
I0
sS'trials.thisRepN'
p2759
I0
sS'trials.thisN'
p2760
I26
sg59
g149
sg36
g12
sS'trials.thisTrialN'
p2761
I26
sg2086
g203
sg2083
g26
(g185
S'\x00\x00\x00\x00\x00\x00\x00\x00'
p2762
tp2763
Rp2764
sS'trials_2.thisN'
p2765
I0
sa(dp2766
g19
(lp2767
F0.300747242741636
asg18
I0
sg25
g35
sg17
(lp2768
S'l'
p2769
asg56
g147
sg2084
g26
(g185
S'\x00\x00\x00\x00\x00\x00\x00\x00'
p2770
tp2771
Rp2772
sg37
g38
sS'trials_2.thisIndex'
p2773
g2099
sg23
g24
sg2082
Vfrogs/ab10.jpg
p2774
sg2085
g26
(g185
S'\x90\x01\x00\x00\x00\x00\x00\x00'
p2775
tp2776
Rp2777
sS'trials.thisIndex'
p2778
g26
(g135
S'\t\x00\x00\x00'
p2779
tp2780
Rp2781
sg39
g44
sS'trials_2.thisRepN'
p2782
I0
sS'trials_2.thisTrialN'
p2783
I0
sS'trials.thisRepN'
p2784
I0
sS'trials.thisN'
p2785
I27
sg59
g149
sg36
g12
sS'trials.thisTrialN'
p2786
I27
sg2086
g203
sg2083
g26
(g185
S'\x00\x00\x00\x00\x00\x00\x00\x00'
p2787
tp2788
Rp2789
sS'trials_2.thisN'
p2790
I0
sa(dp2791
g19
(lp2792
F0.2177664827395347
asg18
I0
sg25
g35
sg17
(lp2793
S'a'
p2794
asg56
g147
sg2084
g26
(g185
S'\x00\x00\x00\x00\x00\x00\x00\x00'
p2795
tp2796
Rp2797
sg37
g38
sS'trials_2.thisIndex'
p2798
g2099
sg23
g24
sg2082
g2300
sg2085
g26
(g185
S'\x90\x01\x00\x00\x00\x00\x00\x00'
p2799
tp2800
Rp2801
sS'trials.thisIndex'
p2802
g26
(g135
S'U\x00\x00\x00'
p2803
tp2804
Rp2805
sg39
g44
sS'trials_2.thisRepN'
p2806
I0
sS'trials_2.thisTrialN'
p2807
I0
sS'trials.thisRepN'
p2808
I0
sS'trials.thisN'
p2809
I28
sg59
g149
sg36
g12
sS'trials.thisTrialN'
p2810
I28
sg2086
g1916
sg2083
g26
(g185
S'\x00\x00\x00\x00\x00\x00\x00\x00'
p2811
tp2812
Rp2813
sS'trials_2.thisN'
p2814
I0
sa(dp2815
g19
(lp2816
F0.08553285391099053
asg18
I0
sg25
g35
sg17
(lp2817
S'l'
p2818
asg56
g147
sg2084
g26
(g185
S'\x00\x00\x00\x00\x00\x00\x00\x00'
p2819
tp2820
Rp2821
sg37
g38
sS'trials_2.thisIndex'
p2822
g2099
sg23
g24
sg2082
Vfrogs/ab28.jpg
p2823
sg2085
g26
(g185
S'\x90\x01\x00\x00\x00\x00\x00\x00'
p2824
tp2825
Rp2826
sS'trials.thisIndex'
p2827
g26
(g135
S'\x1b\x00\x00\x00'
p2828
tp2829
Rp2830
sg39
g44
sS'trials_2.thisRepN'
p2831
I0
sS'trials_2.thisTrialN'
p2832
I0
sS'trials.thisRepN'
p2833
I0
sS'trials.thisN'
p2834
I29
sg59
g149
sg36
g12
sS'trials.thisTrialN'
p2835
I29
sg2086
g203
sg2083
g26
(g185
S'\x00\x00\x00\x00\x00\x00\x00\x00'
p2836
tp2837
Rp2838
sS'trials_2.thisN'
p2839
I0
sa(dp2840
g19
(lp2841
F0.23429105652030557
asg18
I0
sg25
g35
sg17
(lp2842
S'l'
p2843
asg56
g147
sg2084
g26
(g185
S'\x00\x00\x00\x00\x00\x00\x00\x00'
p2844
tp2845
Rp2846
sg37
g38
sS'trials_2.thisIndex'
p2847
g2099
sg23
g24
sg2082
Vfrogs/ab73.jpg
p2848
sg2085
g26
(g185
S'\x90\x01\x00\x00\x00\x00\x00\x00'
p2849
tp2850
Rp2851
sS'trials.thisIndex'
p2852
g26
(g135
S'G\x00\x00\x00'
p2853
tp2854
Rp2855
sg39
g44
sS'trials_2.thisRepN'
p2856
I0
sS'trials_2.thisTrialN'
p2857
I0
sS'trials.thisRepN'
p2858
I0
sS'trials.thisN'
p2859
I30
sg59
g149
sg36
g12
sS'trials.thisTrialN'
p2860
I30
sg2086
g203
sg2083
g26
(g185
S'\x00\x00\x00\x00\x00\x00\x00\x00'
p2861
tp2862
Rp2863
sS'trials_2.thisN'
p2864
I0
sa(dp2865
g19
(lp2866
F1.4169953657110455
asg18
I0
sg25
g35
sg17
(lp2867
S'l'
p2868
asg56
g147
sg2084
g26
(g185
S'\x00\x00\x00\x00\x00\x00\x00\x00'
p2869
tp2870
Rp2871
sg37
g38
sS'trials_2.thisIndex'
p2872
g2099
sg23
g24
sg2082
Vfrogs/ab65.jpg
p2873
sg2085
g26
(g185
S'\x90\x01\x00\x00\x00\x00\x00\x00'
p2874
tp2875
Rp2876
sS'trials.thisIndex'
p2877
g26
(g135
S'?\x00\x00\x00'
p2878
tp2879
Rp2880
sg39
g44
sS'trials_2.thisRepN'
p2881
I0
sS'trials_2.thisTrialN'
p2882
I0
sS'trials.thisRepN'
p2883
I0
sS'trials.thisN'
p2884
I31
sg59
g149
sg36
g12
sS'trials.thisTrialN'
p2885
I31
sg2086
g203
sg2083
g26
(g185
S'\x00\x00\x00\x00\x00\x00\x00\x00'
p2886
tp2887
Rp2888
sS'trials_2.thisN'
p2889
I0
sa(dp2890
g19
(lp2891
F0.484308348641207
asg18
I0
sg25
g35
sg17
(lp2892
S'l'
p2893
asg56
g147
sg2084
g26
(g185
S'\x00\x00\x00\x00\x00\x00\x00\x00'
p2894
tp2895
Rp2896
sg37
g38
sS'trials_2.thisIndex'
p2897
g2099
sg23
g24
sg2082
Vfrogs/ab9.jpg
p2898
sg2085
g26
(g185
S'\x90\x01\x00\x00\x00\x00\x00\x00'
p2899
tp2900
Rp2901
sS'trials.thisIndex'
p2902
g26
(g135
S'\x08\x00\x00\x00'
p2903
tp2904
Rp2905
sg39
g44
sS'trials_2.thisRepN'
p2906
I0
sS'trials_2.thisTrialN'
p2907
I0
sS'trials.thisRepN'
p2908
I0
sS'trials.thisN'
p2909
I32
sg59
g149
sg36
g12
sS'trials.thisTrialN'
p2910
I32
sg2086
g203
sg2083
g26
(g185
S'\x00\x00\x00\x00\x00\x00\x00\x00'
p2911
tp2912
Rp2913
sS'trials_2.thisN'
p2914
I0
sa(dp2915
g19
(lp2916
F0.2842168677379959
asg18
I0
sg25
g35
sg17
(lp2917
S'l'
p2918
asg56
g147
sg2084
g26
(g185
S'\x00\x00\x00\x00\x00\x00\x00\x00'
p2919
tp2920
Rp2921
sg37
g38
sS'trials_2.thisIndex'
p2922
g2099
sg23
g24
sg2082
Vfrogs/ab49.jpg
p2923
sg2085
g26
(g185
S'\x90\x01\x00\x00\x00\x00\x00\x00'
p2924
tp2925
Rp2926
sS'trials.thisIndex'
p2927
g26
(g135
S'0\x00\x00\x00'
p2928
tp2929
Rp2930
sg39
g44
sS'trials_2.thisRepN'
p2931
I0
sS'trials_2.thisTrialN'
p2932
I0
sS'trials.thisRepN'
p2933
I0
sS'trials.thisN'
p2934
I33
sg59
g149
sg36
g12
sS'trials.thisTrialN'
p2935
I33
sg2086
g203
sg2083
g26
(g185
S'\x00\x00\x00\x00\x00\x00\x00\x00'
p2936
tp2937
Rp2938
sS'trials_2.thisN'
p2939
I0
sa(dp2940
g19
(lp2941
F0.41756076228193706
asg18
I0
sg25
g35
sg17
(lp2942
S'l'
p2943
asg56
g147
sg2084
g26
(g185
S'\x00\x00\x00\x00\x00\x00\x00\x00'
p2944
tp2945
Rp2946
sg37
g38
sS'trials_2.thisIndex'
p2947
g2099
sg23
g24
sg2082
Vfrogs/ab21.jpg
p2948
sg2085
g26
(g185
S'\x90\x01\x00\x00\x00\x00\x00\x00'
p2949
tp2950
Rp2951
sS'trials.thisIndex'
p2952
g26
(g135
S'\x14\x00\x00\x00'
p2953
tp2954
Rp2955
sg39
g44
sS'trials_2.thisRepN'
p2956
I0
sS'trials_2.thisTrialN'
p2957
I0
sS'trials.thisRepN'
p2958
I0
sS'trials.thisN'
p2959
I34
sg59
g149
sg36
g12
sS'trials.thisTrialN'
p2960
I34
sg2086
g203
sg2083
g26
(g185
S'\x00\x00\x00\x00\x00\x00\x00\x00'
p2961
tp2962
Rp2963
sS'trials_2.thisN'
p2964
I0
sa(dp2965
g19
(lp2966
F0.6341223746640026
asg18
I0
sg25
g35
sg17
(lp2967
S'l'
p2968
asg56
g147
sg2084
g26
(g185
S'\x00\x00\x00\x00\x00\x00\x00\x00'
p2969
tp2970
Rp2971
sg37
g38
sS'trials_2.thisIndex'
p2972
g2099
sg23
g24
sg2082
Vfrogs/ab4.jpg
p2973
sg2085
g26
(g185
S'\x90\x01\x00\x00\x00\x00\x00\x00'
p2974
tp2975
Rp2976
sS'trials.thisIndex'
p2977
g26
(g135
S'\x03\x00\x00\x00'
p2978
tp2979
Rp2980
sg39
g44
sS'trials_2.thisRepN'
p2981
I0
sS'trials_2.thisTrialN'
p2982
I0
sS'trials.thisRepN'
p2983
I0
sS'trials.thisN'
p2984
I35
sg59
g149
sg36
g12
sS'trials.thisTrialN'
p2985
I35
sg2086
g203
sg2083
g26
(g185
S'\x00\x00\x00\x00\x00\x00\x00\x00'
p2986
tp2987
Rp2988
sS'trials_2.thisN'
p2989
I0
sa(dp2990
g19
(lp2991
F0.6176763405819656
asg18
I0
sg25
g35
sg17
(lp2992
S'l'
p2993
asg56
g147
sg2084
g26
(g185
S'\x00\x00\x00\x00\x00\x00\x00\x00'
p2994
tp2995
Rp2996
sg37
g38
sS'trials_2.thisIndex'
p2997
g2099
sg23
g24
sg2082
Vfrogs/ab76.jpg
p2998
sg2085
g26
(g185
S'\x90\x01\x00\x00\x00\x00\x00\x00'
p2999
tp3000
Rp3001
sS'trials.thisIndex'
p3002
g26
(g135
S'J\x00\x00\x00'
p3003
tp3004
Rp3005
sg39
g44
sS'trials_2.thisRepN'
p3006
I0
sS'trials_2.thisTrialN'
p3007
I0
sS'trials.thisRepN'
p3008
I0
sS'trials.thisN'
p3009
I36
sg59
g149
sg36
g12
sS'trials.thisTrialN'
p3010
I36
sg2086
g203
sg2083
g26
(g185
S'\x00\x00\x00\x00\x00\x00\x00\x00'
p3011
tp3012
Rp3013
sS'trials_2.thisN'
p3014
I0
sa(dp3015
g19
(lp3016
F0.8667605275550159
asg18
I0
sg25
g35
sg17
(lp3017
S'l'
p3018
asg56
g147
sg2084
g26
(g185
S'\x00\x00\x00\x00\x00\x00\x00\x00'
p3019
tp3020
Rp3021
sg37
g38
sS'trials_2.thisIndex'
p3022
g2099
sg23
g24
sg2082
Vfrogs/ab50.jpg
p3023
sg2085
g26
(g185
S'\x90\x01\x00\x00\x00\x00\x00\x00'
p3024
tp3025
Rp3026
sS'trials.thisIndex'
p3027
g26
(g135
S'1\x00\x00\x00'
p3028
tp3029
Rp3030
sg39
g44
sS'trials_2.thisRepN'
p3031
I0
sS'trials_2.thisTrialN'
p3032
I0
sS'trials.thisRepN'
p3033
I0
sS'trials.thisN'
p3034
I37
sg59
g149
sg36
g12
sS'trials.thisTrialN'
p3035
I37
sg2086
g203
sg2083
g26
(g185
S'\x00\x00\x00\x00\x00\x00\x00\x00'
p3036
tp3037
Rp3038
sS'trials_2.thisN'
p3039
I0
sa(dp3040
g19
(lp3041
F1.0173639667846146
asg18
I0
sg25
g35
sg17
(lp3042
S'l'
p3043
asg56
g147
sg2084
g26
(g185
S'\x00\x00\x00\x00\x00\x00\x00\x00'
p3044
tp3045
Rp3046
sg37
g38
sS'trials_2.thisIndex'
p3047
g2099
sg23
g24
sg2082
Vfrogs/ab64.jpg
p3048
sg2085
g26
(g185
S'\x90\x01\x00\x00\x00\x00\x00\x00'
p3049
tp3050
Rp3051
sS'trials.thisIndex'
p3052
g26
(g135
S'>\x00\x00\x00'
p3053
tp3054
Rp3055
sg39
g44
sS'trials_2.thisRepN'
p3056
I0
sS'trials_2.thisTrialN'
p3057
I0
sS'trials.thisRepN'
p3058
I0
sS'trials.thisN'
p3059
I38
sg59
g149
sg36
g12
sS'trials.thisTrialN'
p3060
I38
sg2086
g203
sg2083
g26
(g185
S'\x00\x00\x00\x00\x00\x00\x00\x00'
p3061
tp3062
Rp3063
sS'trials_2.thisN'
p3064
I0
sa(dp3065
g19
(lp3066
F1.317170964408433
asg18
I0
sg25
g35
sg17
(lp3067
S'l'
p3068
asg56
g147
sg2084
g26
(g185
S'\x00\x00\x00\x00\x00\x00\x00\x00'
p3069
tp3070
Rp3071
sg37
g38
sS'trials_2.thisIndex'
p3072
g2099
sg23
g24
sg2082
Vfrogs/ab54.jpg
p3073
sg2085
g26
(g185
S'\x90\x01\x00\x00\x00\x00\x00\x00'
p3074
tp3075
Rp3076
sS'trials.thisIndex'
p3077
g26
(g135
S'5\x00\x00\x00'
p3078
tp3079
Rp3080
sg39
g44
sS'trials_2.thisRepN'
p3081
I0
sS'trials_2.thisTrialN'
p3082
I0
sS'trials.thisRepN'
p3083
I0
sS'trials.thisN'
p3084
I39
sg59
g149
sg36
g12
sS'trials.thisTrialN'
p3085
I39
sg2086
g203
sg2083
g26
(g185
S'\x00\x00\x00\x00\x00\x00\x00\x00'
p3086
tp3087
Rp3088
sS'trials_2.thisN'
p3089
I0
sa(dp3090
g19
(lp3091
F0.08424899761303095
asg18
I0
sg25
g35
sg17
(lp3092
S'l'
p3093
asg56
g147
sg2084
g26
(g185
S'\x00\x00\x00\x00\x00\x00\x00\x00'
p3094
tp3095
Rp3096
sg37
g38
sS'trials_2.thisIndex'
p3097
g2099
sg23
g24
sg2082
Vfrogs/ab30.jpg
p3098
sg2085
g26
(g185
S'\x90\x01\x00\x00\x00\x00\x00\x00'
p3099
tp3100
Rp3101
sS'trials.thisIndex'
p3102
g26
(g135
S'\x1d\x00\x00\x00'
p3103
tp3104
Rp3105
sg39
g44
sS'trials_2.thisRepN'
p3106
I0
sS'trials_2.thisTrialN'
p3107
I0
sS'trials.thisRepN'
p3108
I0
sS'trials.thisN'
p3109
I40
sg59
g149
sg36
g12
sS'trials.thisTrialN'
p3110
I40
sg2086
g203
sg2083
g26
(g185
S'\x00\x00\x00\x00\x00\x00\x00\x00'
p3111
tp3112
Rp3113
sS'trials_2.thisN'
p3114
I0
sa(dp3115
g19
(lp3116
F0.01777719269739464
asg18
I0
sg25
g35
sg17
(lp3117
S'l'
p3118
asg56
g147
sg2084
g26
(g185
S'\x00\x00\x00\x00\x00\x00\x00\x00'
p3119
tp3120
Rp3121
sg37
g38
sS'trials_2.thisIndex'
p3122
g2099
sg23
g24
sg2082
Vfrogs/ab79.jpg
p3123
sg2085
g26
(g185
S'\x90\x01\x00\x00\x00\x00\x00\x00'
p3124
tp3125
Rp3126
sS'trials.thisIndex'
p3127
g26
(g135
S'M\x00\x00\x00'
p3128
tp3129
Rp3130
sg39
g44
sS'trials_2.thisRepN'
p3131
I0
sS'trials_2.thisTrialN'
p3132
I0
sS'trials.thisRepN'
p3133
I0
sS'trials.thisN'
p3134
I41
sg59
g149
sg36
g12
sS'trials.thisTrialN'
p3135
I41
sg2086
g203
sg2083
g26
(g185
S'\x00\x00\x00\x00\x00\x00\x00\x00'
p3136
tp3137
Rp3138
sS'trials_2.thisN'
p3139
I0
sa(dp3140
g19
(lp3141
F0.01762100579799153
asg18
I0
sg25
g35
sg17
(lp3142
S'l'
p3143
asg56
g147
sg2084
g26
(g185
S'\x00\x00\x00\x00\x00\x00\x00\x00'
p3144
tp3145
Rp3146
sg37
g38
sS'trials_2.thisIndex'
p3147
g2099
sg23
g24
sg2082
Vfrogs/ab36.jpg
p3148
sg2085
g26
(g185
S'\x90\x01\x00\x00\x00\x00\x00\x00'
p3149
tp3150
Rp3151
sS'trials.thisIndex'
p3152
g26
(g135
S'#\x00\x00\x00'
p3153
tp3154
Rp3155
sg39
g44
sS'trials_2.thisRepN'
p3156
I0
sS'trials_2.thisTrialN'
p3157
I0
sS'trials.thisRepN'
p3158
I0
sS'trials.thisN'
p3159
I42
sg59
g149
sg36
g12
sS'trials.thisTrialN'
p3160
I42
sg2086
g203
sg2083
g26
(g185
S'\x00\x00\x00\x00\x00\x00\x00\x00'
p3161
tp3162
Rp3163
sS'trials_2.thisN'
p3164
I0
sa(dp3165
g19
(lp3166
F0.0011415031040087342
asg18
I0
sg25
g35
sg17
(lp3167
S'l'
p3168
asg56
g147
sg2084
g26
(g185
S'\x00\x00\x00\x00\x00\x00\x00\x00'
p3169
tp3170
Rp3171
sg37
g38
sS'trials_2.thisIndex'
p3172
g2099
sg23
g24
sg2082
Vfrogs/ab72.jpg
p3173
sg2085
g26
(g185
S'\x90\x01\x00\x00\x00\x00\x00\x00'
p3174
tp3175
Rp3176
sS'trials.thisIndex'
p3177
g26
(g135
S'F\x00\x00\x00'
p3178
tp3179
Rp3180
sg39
g44
sS'trials_2.thisRepN'
p3181
I0
sS'trials_2.thisTrialN'
p3182
I0
sS'trials.thisRepN'
p3183
I0
sS'trials.thisN'
p3184
I43
sg59
g149
sg36
g12
sS'trials.thisTrialN'
p3185
I43
sg2086
g203
sg2083
g26
(g185
S'\x00\x00\x00\x00\x00\x00\x00\x00'
p3186
tp3187
Rp3188
sS'trials_2.thisN'
p3189
I0
sa(dp3190
g19
(lp3191
F0.7508185309052351
asg18
I0
sg25
g35
sg17
(lp3192
S'l'
p3193
asg56
g147
sg2084
g26
(g185
S'\x00\x00\x00\x00\x00\x00\x00\x00'
p3194
tp3195
Rp3196
sg37
g38
sS'trials_2.thisIndex'
p3197
g2099
sg23
g24
sg2082
g2300
sg2085
g26
(g185
S'\x90\x01\x00\x00\x00\x00\x00\x00'
p3198
tp3199
Rp3200
sS'trials.thisIndex'
p3201
g26
(g135
S'P\x00\x00\x00'
p3202
tp3203
Rp3204
sg39
g44
sS'trials_2.thisRepN'
p3205
I0
sS'trials_2.thisTrialN'
p3206
I0
sS'trials.thisRepN'
p3207
I0
sS'trials.thisN'
p3208
I44
sg59
g149
sg36
g12
sS'trials.thisTrialN'
p3209
I44
sg2086
g1916
sg2083
g26
(g185
S'\x00\x00\x00\x00\x00\x00\x00\x00'
p3210
tp3211
Rp3212
sS'trials_2.thisN'
p3213
I0
sa(dp3214
g19
(lp3215
F0.48436725341161946
asg18
I0
sg25
g35
sg17
(lp3216
S'l'
p3217
asg56
g147
sg2084
g26
(g185
S'\x00\x00\x00\x00\x00\x00\x00\x00'
p3218
tp3219
Rp3220
sg37
g38
sS'trials_2.thisIndex'
p3221
g2099
sg23
g24
sg2082
Vfrogs/ab70.jpg
p3222
sg2085
g26
(g185
S'\x90\x01\x00\x00\x00\x00\x00\x00'
p3223
tp3224
Rp3225
sS'trials.thisIndex'
p3226
g26
(g135
S'D\x00\x00\x00'
p3227
tp3228
Rp3229
sg39
g44
sS'trials_2.thisRepN'
p3230
I0
sS'trials_2.thisTrialN'
p3231
I0
sS'trials.thisRepN'
p3232
I0
sS'trials.thisN'
p3233
I45
sg59
g149
sg36
g12
sS'trials.thisTrialN'
p3234
I45
sg2086
g203
sg2083
g26
(g185
S'\x00\x00\x00\x00\x00\x00\x00\x00'
p3235
tp3236
Rp3237
sS'trials_2.thisN'
p3238
I0
sa(dp3239
g19
(lp3240
F0.10116046865005046
asg18
I0
sg25
g35
sg17
(lp3241
S'l'
p3242
asg56
g147
sg2084
g26
(g185
S'\x00\x00\x00\x00\x00\x00\x00\x00'
p3243
tp3244
Rp3245
sg37
g38
sS'trials_2.thisIndex'
p3246
g2099
sg23
g24
sg2082
Vfrogs/ab15.jpg
p3247
sg2085
g26
(g185
S'\x90\x01\x00\x00\x00\x00\x00\x00'
p3248
tp3249
Rp3250
sS'trials.thisIndex'
p3251
g26
(g135
S'\x0e\x00\x00\x00'
p3252
tp3253
Rp3254
sg39
g44
sS'trials_2.thisRepN'
p3255
I0
sS'trials_2.thisTrialN'
p3256
I0
sS'trials.thisRepN'
p3257
I0
sS'trials.thisN'
p3258
I46
sg59
g149
sg36
g12
sS'trials.thisTrialN'
p3259
I46
sg2086
g203
sg2083
g26
(g185
S'\x00\x00\x00\x00\x00\x00\x00\x00'
p3260
tp3261
Rp3262
sS'trials_2.thisN'
p3263
I0
sa(dp3264
g19
(lp3265
F0.0009915636765072122
asg18
I0
sg25
g35
sg17
(lp3266
S'l'
p3267
asg56
g147
sg2084
g26
(g185
S'\x00\x00\x00\x00\x00\x00\x00\x00'
p3268
tp3269
Rp3270
sg37
g38
sS'trials_2.thisIndex'
p3271
g2099
sg23
g24
sg2082
Vfrogs/ab44.jpg
p3272
sg2085
g26
(g185
S'\x90\x01\x00\x00\x00\x00\x00\x00'
p3273
tp3274
Rp3275
sS'trials.thisIndex'
p3276
g26
(g135
S'+\x00\x00\x00'
p3277
tp3278
Rp3279
sg39
g44
sS'trials_2.thisRepN'
p3280
I0
sS'trials_2.thisTrialN'
p3281
I0
sS'trials.thisRepN'
p3282
I0
sS'trials.thisN'
p3283
I47
sg59
g149
sg36
g12
sS'trials.thisTrialN'
p3284
I47
sg2086
g203
sg2083
g26
(g185
S'\x00\x00\x00\x00\x00\x00\x00\x00'
p3285
tp3286
Rp3287
sS'trials_2.thisN'
p3288
I0
sa(dp3289
g19
(lp3290
F0.03426294287055498
asg18
I0
sg25
g35
sg17
(lp3291
S'l'
p3292
asg56
g147
sg2084
g26
(g185
S'\x00\x00\x00\x00\x00\x00\x00\x00'
p3293
tp3294
Rp3295
sg37
g38
sS'trials_2.thisIndex'
p3296
g2099
sg23
g24
sg2082
Vfrogs/ab3.jpg
p3297
sg2085
g26
(g185
S'\x90\x01\x00\x00\x00\x00\x00\x00'
p3298
tp3299
Rp3300
sS'trials.thisIndex'
p3301
g26
(g135
S'\x02\x00\x00\x00'
p3302
tp3303
Rp3304
sg39
g44
sS'trials_2.thisRepN'
p3305
I0
sS'trials_2.thisTrialN'
p3306
I0
sS'trials.thisRepN'
p3307
I0
sS'trials.thisN'
p3308
I48
sg59
g149
sg36
g12
sS'trials.thisTrialN'
p3309
I48
sg2086
g203
sg2083
g26
(g185
S'\x00\x00\x00\x00\x00\x00\x00\x00'
p3310
tp3311
Rp3312
sS'trials_2.thisN'
p3313
I0
sa(dp3314
g19
(lp3315
F0.5344349715815042
asg18
I0
sg25
g35
sg17
(lp3316
S'a'
p3317
asg56
g147
sg2084
g26
(g185
S'\x00\x00\x00\x00\x00\x00\x00\x00'
p3318
tp3319
Rp3320
sg37
g38
sS'trials_2.thisIndex'
p3321
g2099
sg23
g24
sg2082
Vfrogs/ab69.jpg
p3322
sg2085
g26
(g185
S'\x90\x01\x00\x00\x00\x00\x00\x00'
p3323
tp3324
Rp3325
sS'trials.thisIndex'
p3326
g26
(g135
S'C\x00\x00\x00'
p3327
tp3328
Rp3329
sg39
g44
sS'trials_2.thisRepN'
p3330
I0
sS'trials_2.thisTrialN'
p3331
I0
sS'trials.thisRepN'
p3332
I0
sS'trials.thisN'
p3333
I49
sg59
g149
sg36
g12
sS'trials.thisTrialN'
p3334
I49
sg2086
g203
sg2083
g26
(g185
S'\x00\x00\x00\x00\x00\x00\x00\x00'
p3335
tp3336
Rp3337
sS'trials_2.thisN'
p3338
I0
sa(dp3339
g19
(lp3340
F0.23467126004834427
asg18
I0
sg25
g35
sg17
(lp3341
S'l'
p3342
asg56
g147
sg2084
g26
(g185
S'\x00\x00\x00\x00\x00\x00\x00\x00'
p3343
tp3344
Rp3345
sg37
g38
sS'trials_2.thisIndex'
p3346
g2099
sg23
g24
sg2082
Vfrogs/ab37.jpg
p3347
sg2085
g26
(g185
S'\x90\x01\x00\x00\x00\x00\x00\x00'
p3348
tp3349
Rp3350
sS'trials.thisIndex'
p3351
g26
(g135
S'$\x00\x00\x00'
p3352
tp3353
Rp3354
sg39
g44
sS'trials_2.thisRepN'
p3355
I0
sS'trials_2.thisTrialN'
p3356
I0
sS'trials.thisRepN'
p3357
I0
sS'trials.thisN'
p3358
I50
sg59
g149
sg36
g12
sS'trials.thisTrialN'
p3359
I50
sg2086
g203
sg2083
g26
(g185
S'\x00\x00\x00\x00\x00\x00\x00\x00'
p3360
tp3361
Rp3362
sS'trials_2.thisN'
p3363
I0
sa(dp3364
g19
(lp3365
F0.15112778096226975
asg18
I0
sg25
g35
sg17
(lp3366
S'l'
p3367
asg56
g147
sg2084
g26
(g185
S'\x00\x00\x00\x00\x00\x00\x00\x00'
p3368
tp3369
Rp3370
sg37
g38
sS'trials_2.thisIndex'
p3371
g2099
sg23
g24
sg2082
Vfrogs/ab58.jpg
p3372
sg2085
g26
(g185
S'\x90\x01\x00\x00\x00\x00\x00\x00'
p3373
tp3374
Rp3375
sS'trials.thisIndex'
p3376
g26
(g135
S'9\x00\x00\x00'
p3377
tp3378
Rp3379
sg39
g44
sS'trials_2.thisRepN'
p3380
I0
sS'trials_2.thisTrialN'
p3381
I0
sS'trials.thisRepN'
p3382
I0
sS'trials.thisN'
p3383
I51
sg59
g149
sg36
g12
sS'trials.thisTrialN'
p3384
I51
sg2086
g203
sg2083
g26
(g185
S'\x00\x00\x00\x00\x00\x00\x00\x00'
p3385
tp3386
Rp3387
sS'trials_2.thisN'
p3388
I0
sa(dp3389
g19
(lp3390
F0.0009763912312337197
asg18
I0
sg25
g35
sg17
(lp3391
S'l'
p3392
asg56
g147
sg2084
g26
(g185
S'\x00\x00\x00\x00\x00\x00\x00\x00'
p3393
tp3394
Rp3395
sg37
g38
sS'trials_2.thisIndex'
p3396
g2099
sg23
g24
sg2082
Vfrogs/ab55.jpg
p3397
sg2085
g26
(g185
S'\x90\x01\x00\x00\x00\x00\x00\x00'
p3398
tp3399
Rp3400
sS'trials.thisIndex'
p3401
g26
(g135
S'6\x00\x00\x00'
p3402
tp3403
Rp3404
sg39
g44
sS'trials_2.thisRepN'
p3405
I0
sS'trials_2.thisTrialN'
p3406
I0
sS'trials.thisRepN'
p3407
I0
sS'trials.thisN'
p3408
I52
sg59
g149
sg36
g12
sS'trials.thisTrialN'
p3409
I52
sg2086
g203
sg2083
g26
(g185
S'\x00\x00\x00\x00\x00\x00\x00\x00'
p3410
tp3411
Rp3412
sS'trials_2.thisN'
p3413
I0
sa(dp3414
g19
(lp3415
F0.0010094136086991057
asg18
I0
sg25
g35
sg17
(lp3416
S'l'
p3417
asg56
g147
sg2084
g26
(g185
S'\x00\x00\x00\x00\x00\x00\x00\x00'
p3418
tp3419
Rp3420
sg37
g38
sS'trials_2.thisIndex'
p3421
g2099
sg23
g24
sg2082
Vfrogs/ab48.jpg
p3422
sg2085
g26
(g185
S'\x90\x01\x00\x00\x00\x00\x00\x00'
p3423
tp3424
Rp3425
sS'trials.thisIndex'
p3426
g26
(g135
S'/\x00\x00\x00'
p3427
tp3428
Rp3429
sg39
g44
sS'trials_2.thisRepN'
p3430
I0
sS'trials_2.thisTrialN'
p3431
I0
sS'trials.thisRepN'
p3432
I0
sS'trials.thisN'
p3433
I53
sg59
g149
sg36
g12
sS'trials.thisTrialN'
p3434
I53
sg2086
g203
sg2083
g26
(g185
S'\x00\x00\x00\x00\x00\x00\x00\x00'
p3435
tp3436
Rp3437
sS'trials_2.thisN'
p3438
I0
sa(dp3439
g19
(lp3440
F0.13389411866955925
asg18
I0
sg25
g35
sg17
(lp3441
S'l'
p3442
asg56
g147
sg2084
g26
(g185
S'\x00\x00\x00\x00\x00\x00\x00\x00'
p3443
tp3444
Rp3445
sg37
g38
sS'trials_2.thisIndex'
p3446
g2099
sg23
g24
sg2082
Vfrogs/ab78.jpg
p3447
sg2085
g26
(g185
S'\x90\x01\x00\x00\x00\x00\x00\x00'
p3448
tp3449
Rp3450
sS'trials.thisIndex'
p3451
g26
(g135
S'L\x00\x00\x00'
p3452
tp3453
Rp3454
sg39
g44
sS'trials_2.thisRepN'
p3455
I0
sS'trials_2.thisTrialN'
p3456
I0
sS'trials.thisRepN'
p3457
I0
sS'trials.thisN'
p3458
I54
sg59
g149
sg36
g12
sS'trials.thisTrialN'
p3459
I54
sg2086
g203
sg2083
g26
(g185
S'\x00\x00\x00\x00\x00\x00\x00\x00'
p3460
tp3461
Rp3462
sS'trials_2.thisN'
p3463
I0
sa(dp3464
g19
(lp3465
F0.11774617843911983
asg18
I0
sg25
g35
sg17
(lp3466
S'l'
p3467
asg56
g147
sg2084
g26
(g185
S'\x00\x00\x00\x00\x00\x00\x00\x00'
p3468
tp3469
Rp3470
sg37
g38
sS'trials_2.thisIndex'
p3471
g2099
sg23
g24
sg2082
Vfrogs/ab61.jpg
p3472
sg2085
g26
(g185
S'\x90\x01\x00\x00\x00\x00\x00\x00'
p3473
tp3474
Rp3475
sS'trials.thisIndex'
p3476
g26
(g135
S';\x00\x00\x00'
p3477
tp3478
Rp3479
sg39
g44
sS'trials_2.thisRepN'
p3480
I0
sS'trials_2.thisTrialN'
p3481
I0
sS'trials.thisRepN'
p3482
I0
sS'trials.thisN'
p3483
I55
sg59
g149
sg36
g12
sS'trials.thisTrialN'
p3484
I55
sg2086
g203
sg2083
g26
(g185
S'\x00\x00\x00\x00\x00\x00\x00\x00'
p3485
tp3486
Rp3487
sS'trials_2.thisN'
p3488
I0
sa(dp3489
g19
(lp3490
F0.16770233454735717
asg18
I0
sg25
g35
sg17
(lp3491
S'a'
p3492
asg56
g147
sg2084
g26
(g185
S'\x00\x00\x00\x00\x00\x00\x00\x00'
p3493
tp3494
Rp3495
sg37
g38
sS'trials_2.thisIndex'
p3496
g2099
sg23
g24
sg2082
g2300
sg2085
g26
(g185
S'\x90\x01\x00\x00\x00\x00\x00\x00'
p3497
tp3498
Rp3499
sS'trials.thisIndex'
p3500
g26
(g135
S'S\x00\x00\x00'
p3501
tp3502
Rp3503
sg39
g44
sS'trials_2.thisRepN'
p3504
I0
sS'trials_2.thisTrialN'
p3505
I0
sS'trials.thisRepN'
p3506
I0
sS'trials.thisN'
p3507
I56
sg59
g149
sg36
g12
sS'trials.thisTrialN'
p3508
I56
sg2086
g1916
sg2083
g26
(g185
S'\x00\x00\x00\x00\x00\x00\x00\x00'
p3509
tp3510
Rp3511
sS'trials_2.thisN'
p3512
I0
sa(dp3513
g19
(lp3514
F1.7503397065011086
asg18
I0
sg25
g35
sg17
(lp3515
S'l'
p3516
asg56
g147
sg2084
g26
(g185
S'\x00\x00\x00\x00\x00\x00\x00\x00'
p3517
tp3518
Rp3519
sg37
g38
sS'trials_2.thisIndex'
p3520
g2099
sg23
g24
sg2082
Vfrogs/ab2.jpg
p3521
sg2085
g26
(g185
S'\x90\x01\x00\x00\x00\x00\x00\x00'
p3522
tp3523
Rp3524
sS'trials.thisIndex'
p3525
g26
(g135
S'\x01\x00\x00\x00'
p3526
tp3527
Rp3528
sg39
g44
sS'trials_2.thisRepN'
p3529
I0
sS'trials_2.thisTrialN'
p3530
I0
sS'trials.thisRepN'
p3531
I0
sS'trials.thisN'
p3532
I57
sg59
g149
sg36
g12
sS'trials.thisTrialN'
p3533
I57
sg2086
g203
sg2083
g26
(g185
S'\x00\x00\x00\x00\x00\x00\x00\x00'
p3534
tp3535
Rp3536
sS'trials_2.thisN'
p3537
I0
sa(dp3538
g19
(lp3539
F0.16786967765074223
asg18
I0
sg25
g35
sg17
(lp3540
S'l'
p3541
asg56
g147
sg2084
g26
(g185
S'\x00\x00\x00\x00\x00\x00\x00\x00'
p3542
tp3543
Rp3544
sg37
g38
sS'trials_2.thisIndex'
p3545
g2099
sg23
g24
sg2082
Vfrogs/ab57.jpg
p3546
sg2085
g26
(g185
S'\x90\x01\x00\x00\x00\x00\x00\x00'
p3547
tp3548
Rp3549
sS'trials.thisIndex'
p3550
g26
(g135
S'8\x00\x00\x00'
p3551
tp3552
Rp3553
sg39
g44
sS'trials_2.thisRepN'
p3554
I0
sS'trials_2.thisTrialN'
p3555
I0
sS'trials.thisRepN'
p3556
I0
sS'trials.thisN'
p3557
I58
sg59
g149
sg36
g12
sS'trials.thisTrialN'
p3558
I58
sg2086
g203
sg2083
g26
(g185
S'\x00\x00\x00\x00\x00\x00\x00\x00'
p3559
tp3560
Rp3561
sS'trials_2.thisN'
p3562
I0
sa(dp3563
g19
(lp3564
F0.6676485616262653
asg18
I0
sg25
g35
sg17
(lp3565
S'l'
p3566
asg56
g147
sg2084
g26
(g185
S'\x00\x00\x00\x00\x00\x00\x00\x00'
p3567
tp3568
Rp3569
sg37
g38
sS'trials_2.thisIndex'
p3570
g2099
sg23
g24
sg2082
Vfrogs/ab62.jpg
p3571
sg2085
g26
(g185
S'\x90\x01\x00\x00\x00\x00\x00\x00'
p3572
tp3573
Rp3574
sS'trials.thisIndex'
p3575
g26
(g135
S'<\x00\x00\x00'
p3576
tp3577
Rp3578
sg39
g44
sS'trials_2.thisRepN'
p3579
I0
sS'trials_2.thisTrialN'
p3580
I0
sS'trials.thisRepN'
p3581
I0
sS'trials.thisN'
p3582
I59
sg59
g149
sg36
g12
sS'trials.thisTrialN'
p3583
I59
sg2086
g203
sg2083
g26
(g185
S'\x00\x00\x00\x00\x00\x00\x00\x00'
p3584
tp3585
Rp3586
sS'trials_2.thisN'
p3587
I0
sa(dp3588
g19
(lp3589
F0.4677494137431495
asg18
I0
sg25
g35
sg17
(lp3590
S'l'
p3591
asg56
g147
sg2084
g26
(g185
S'\x00\x00\x00\x00\x00\x00\x00\x00'
p3592
tp3593
Rp3594
sg37
g38
sS'trials_2.thisIndex'
p3595
g2099
sg23
g24
sg2082
Vfrogs/ab39.jpg
p3596
sg2085
g26
(g185
S'\x90\x01\x00\x00\x00\x00\x00\x00'
p3597
tp3598
Rp3599
sS'trials.thisIndex'
p3600
g26
(g135
S'&\x00\x00\x00'
p3601
tp3602
Rp3603
sg39
g44
sS'trials_2.thisRepN'
p3604
I0
sS'trials_2.thisTrialN'
p3605
I0
sS'trials.thisRepN'
p3606
I0
sS'trials.thisN'
p3607
I60
sg59
g149
sg36
g12
sS'trials.thisTrialN'
p3608
I60
sg2086
g203
sg2083
g26
(g185
S'\x00\x00\x00\x00\x00\x00\x00\x00'
p3609
tp3610
Rp3611
sS'trials_2.thisN'
p3612
I0
sa(dp3613
g19
(lp3614
F0.6349831875995733
asg18
I0
sg25
g35
sg17
(lp3615
S'l'
p3616
asg56
g147
sg2084
g26
(g185
S'\x00\x00\x00\x00\x00\x00\x00\x00'
p3617
tp3618
Rp3619
sg37
g38
sS'trials_2.thisIndex'
p3620
g2099
sg23
g24
sg2082
Vfrogs/ab12.jpg
p3621
sg2085
g26
(g185
S'\x90\x01\x00\x00\x00\x00\x00\x00'
p3622
tp3623
Rp3624
sS'trials.thisIndex'
p3625
g26
(g135
S'\x0b\x00\x00\x00'
p3626
tp3627
Rp3628
sg39
g44
sS'trials_2.thisRepN'
p3629
I0
sS'trials_2.thisTrialN'
p3630
I0
sS'trials.thisRepN'
p3631
I0
sS'trials.thisN'
p3632
I61
sg59
g149
sg36
g12
sS'trials.thisTrialN'
p3633
I61
sg2086
g203
sg2083
g26
(g185
S'\x00\x00\x00\x00\x00\x00\x00\x00'
p3634
tp3635
Rp3636
sS'trials_2.thisN'
p3637
I0
sa(dp3638
g19
(lp3639
F0.4335235094767995
asg18
I0
sg25
g35
sg17
(lp3640
S'l'
p3641
asg56
g147
sg2084
g26
(g185
S'\x00\x00\x00\x00\x00\x00\x00\x00'
p3642
tp3643
Rp3644
sg37
g38
sS'trials_2.thisIndex'
p3645
g2099
sg23
g24
sg2082
Vfrogs/ab75.jpg
p3646
sg2085
g26
(g185
S'\x90\x01\x00\x00\x00\x00\x00\x00'
p3647
tp3648
Rp3649
sS'trials.thisIndex'
p3650
g26
(g135
S'I\x00\x00\x00'
p3651
tp3652
Rp3653
sg39
g44
sS'trials_2.thisRepN'
p3654
I0
sS'trials_2.thisTrialN'
p3655
I0
sS'trials.thisRepN'
p3656
I0
sS'trials.thisN'
p3657
I62
sg59
g149
sg36
g12
sS'trials.thisTrialN'
p3658
I62
sg2086
g203
sg2083
g26
(g185
S'\x00\x00\x00\x00\x00\x00\x00\x00'
p3659
tp3660
Rp3661
sS'trials_2.thisN'
p3662
I0
sa(dp3663
g19
(lp3664
F0.5848891407731571
asg18
I0
sg25
g35
sg17
(lp3665
S'l'
p3666
asg56
g147
sg2084
g26
(g185
S'\x00\x00\x00\x00\x00\x00\x00\x00'
p3667
tp3668
Rp3669
sg37
g38
sS'trials_2.thisIndex'
p3670
g2099
sg23
g24
sg2082
Vfrogs/ab67.jpg
p3671
sg2085
g26
(g185
S'\x90\x01\x00\x00\x00\x00\x00\x00'
p3672
tp3673
Rp3674
sS'trials.thisIndex'
p3675
g26
(g135
S'A\x00\x00\x00'
p3676
tp3677
Rp3678
sg39
g44
sS'trials_2.thisRepN'
p3679
I0
sS'trials_2.thisTrialN'
p3680
I0
sS'trials.thisRepN'
p3681
I0
sS'trials.thisN'
p3682
I63
sg59
g149
sg36
g12
sS'trials.thisTrialN'
p3683
I63
sg2086
g203
sg2083
g26
(g185
S'\x00\x00\x00\x00\x00\x00\x00\x00'
p3684
tp3685
Rp3686
sS'trials_2.thisN'
p3687
I0
sa(dp3688
g19
(lp3689
F0.4618892813377897
asg18
I0
sg25
g35
sg17
(lp3690
S'l'
p3691
asg56
g147
sg2084
g26
(g185
S'\x00\x00\x00\x00\x00\x00\x00\x00'
p3692
tp3693
Rp3694
sg37
g38
sS'trials_2.thisIndex'
p3695
g2099
sg23
g24
sg2082
Vfrogs/ab47.jpg
p3696
sg2085
g26
(g185
S'\x90\x01\x00\x00\x00\x00\x00\x00'
p3697
tp3698
Rp3699
sS'trials.thisIndex'
p3700
g26
(g135
S'.\x00\x00\x00'
p3701
tp3702
Rp3703
sg39
g44
sS'trials_2.thisRepN'
p3704
I0
sS'trials_2.thisTrialN'
p3705
I0
sS'trials.thisRepN'
p3706
I0
sS'trials.thisN'
p3707
I64
sg59
g149
sg36
g12
sS'trials.thisTrialN'
p3708
I64
sg2086
g203
sg2083
g26
(g185
S'\x00\x00\x00\x00\x00\x00\x00\x00'
p3709
tp3710
Rp3711
sS'trials_2.thisN'
p3712
I0
sa(dp3713
g19
(lp3714
F0.46754770951520186
asg18
I0
sg25
g35
sg17
(lp3715
S'l'
p3716
asg56
g147
sg2084
g26
(g185
S'\x00\x00\x00\x00\x00\x00\x00\x00'
p3717
tp3718
Rp3719
sg37
g38
sS'trials_2.thisIndex'
p3720
g2099
sg23
g24
sg2082
Vfrogs/ab33.jpg
p3721
sg2085
g26
(g185
S'\x90\x01\x00\x00\x00\x00\x00\x00'
p3722
tp3723
Rp3724
sS'trials.thisIndex'
p3725
g26
(g135
S' \x00\x00\x00'
p3726
tp3727
Rp3728
sg39
g44
sS'trials_2.thisRepN'
p3729
I0
sS'trials_2.thisTrialN'
p3730
I0
sS'trials.thisRepN'
p3731
I0
sS'trials.thisN'
p3732
I65
sg59
g149
sg36
g12
sS'trials.thisTrialN'
p3733
I65
sg2086
g203
sg2083
g26
(g185
S'\x00\x00\x00\x00\x00\x00\x00\x00'
p3734
tp3735
Rp3736
sS'trials_2.thisN'
p3737
I0
sa(dp3738
g19
(lp3739
F0.08467962720169453
asg18
I0
sg25
g35
sg17
(lp3740
S'a'
p3741
asg56
g147
sg2084
g26
(g185
S'\x00\x00\x00\x00\x00\x00\x00\x00'
p3742
tp3743
Rp3744
sg37
g38
sS'trials_2.thisIndex'
p3745
g2099
sg23
g24
sg2082
g2300
sg2085
g26
(g185
S'\x90\x01\x00\x00\x00\x00\x00\x00'
p3746
tp3747
Rp3748
sS'trials.thisIndex'
p3749
g26
(g135
S'T\x00\x00\x00'
p3750
tp3751
Rp3752
sg39
g44
sS'trials_2.thisRepN'
p3753
I0
sS'trials_2.thisTrialN'
p3754
I0
sS'trials.thisRepN'
p3755
I0
sS'trials.thisN'
p3756
I66
sg59
g149
sg36
g12
sS'trials.thisTrialN'
p3757
I66
sg2086
g1916
sg2083
g26
(g185
S'\x00\x00\x00\x00\x00\x00\x00\x00'
p3758
tp3759
Rp3760
sS'trials_2.thisN'
p3761
I0
sa(dp3762
g19
(lp3763
F0.13440418045502156
asg18
I0
sg25
g35
sg17
(lp3764
S'l'
p3765
asg56
g147
sg2084
g26
(g185
S'\x00\x00\x00\x00\x00\x00\x00\x00'
p3766
tp3767
Rp3768
sg37
g38
sS'trials_2.thisIndex'
p3769
g2099
sg23
g24
sg2082
Vfrogs/ab8.jpg
p3770
sg2085
g26
(g185
S'\x90\x01\x00\x00\x00\x00\x00\x00'
p3771
tp3772
Rp3773
sS'trials.thisIndex'
p3774
g26
(g135
S'\x07\x00\x00\x00'
p3775
tp3776
Rp3777
sg39
g44
sS'trials_2.thisRepN'
p3778
I0
sS'trials_2.thisTrialN'
p3779
I0
sS'trials.thisRepN'
p3780
I0
sS'trials.thisN'
p3781
I67
sg59
g149
sg36
g12
sS'trials.thisTrialN'
p3782
I67
sg2086
g203
sg2083
g26
(g185
S'\x00\x00\x00\x00\x00\x00\x00\x00'
p3783
tp3784
Rp3785
sS'trials_2.thisN'
p3786
I0
sa(dp3787
g19
(lp3788
F0.3175386729926686
asg18
I0
sg25
g35
sg17
(lp3789
S'l'
p3790
asg56
g147
sg2084
g26
(g185
S'\x00\x00\x00\x00\x00\x00\x00\x00'
p3791
tp3792
Rp3793
sg37
g38
sS'trials_2.thisIndex'
p3794
g2099
sg23
g24
sg2082
Vfrogs/ab16.jpg
p3795
sg2085
g26
(g185
S'\x90\x01\x00\x00\x00\x00\x00\x00'
p3796
tp3797
Rp3798
sS'trials.thisIndex'
p3799
g26
(g135
S'\x0f\x00\x00\x00'
p3800
tp3801
Rp3802
sg39
g44
sS'trials_2.thisRepN'
p3803
I0
sS'trials_2.thisTrialN'
p3804
I0
sS'trials.thisRepN'
p3805
I0
sS'trials.thisN'
p3806
I68
sg59
g149
sg36
g12
sS'trials.thisTrialN'
p3807
I68
sg2086
g203
sg2083
g26
(g185
S'\x00\x00\x00\x00\x00\x00\x00\x00'
p3808
tp3809
Rp3810
sS'trials_2.thisN'
p3811
I0
sa(dp3812
g19
(lp3813
F0.6341732469663839
asg18
I0
sg25
g35
sg17
(lp3814
S'l'
p3815
asg56
g147
sg2084
g26
(g185
S'\x00\x00\x00\x00\x00\x00\x00\x00'
p3816
tp3817
Rp3818
sg37
g38
sS'trials_2.thisIndex'
p3819
g2099
sg23
g24
sg2082
Vfrogs/ab26.jpg
p3820
sg2085
g26
(g185
S'\x90\x01\x00\x00\x00\x00\x00\x00'
p3821
tp3822
Rp3823
sS'trials.thisIndex'
p3824
g26
(g135
S'\x19\x00\x00\x00'
p3825
tp3826
Rp3827
sg39
g44
sS'trials_2.thisRepN'
p3828
I0
sS'trials_2.thisTrialN'
p3829
I0
sS'trials.thisRepN'
p3830
I0
sS'trials.thisN'
p3831
I69
sg59
g149
sg36
g12
sS'trials.thisTrialN'
p3832
I69
sg2086
g203
sg2083
g26
(g185
S'\x00\x00\x00\x00\x00\x00\x00\x00'
p3833
tp3834
Rp3835
sS'trials_2.thisN'
p3836
I0
sa(dp3837
g19
(lp3838
F0.15128753784665605
asg18
I0
sg25
g35
sg17
(lp3839
S'l'
p3840
asg56
g147
sg2084
g26
(g185
S'\x00\x00\x00\x00\x00\x00\x00\x00'
p3841
tp3842
Rp3843
sg37
g38
sS'trials_2.thisIndex'
p3844
g2099
sg23
g24
sg2082
Vfrogs/ab25.jpg
p3845
sg2085
g26
(g185
S'\x90\x01\x00\x00\x00\x00\x00\x00'
p3846
tp3847
Rp3848
sS'trials.thisIndex'
p3849
g26
(g135
S'\x18\x00\x00\x00'
p3850
tp3851
Rp3852
sg39
g44
sS'trials_2.thisRepN'
p3853
I0
sS'trials_2.thisTrialN'
p3854
I0
sS'trials.thisRepN'
p3855
I0
sS'trials.thisN'
p3856
I70
sg59
g149
sg36
g12
sS'trials.thisTrialN'
p3857
I70
sg2086
g203
sg2083
g26
(g185
S'\x00\x00\x00\x00\x00\x00\x00\x00'
p3858
tp3859
Rp3860
sS'trials_2.thisN'
p3861
I0
sa(dp3862
g19
(lp3863
F1.0297839488921454
asg18
I0
sg25
g35
sg17
(lp3864
S'l'
p3865
asg56
g147
sg2084
g26
(g185
S'\x00\x00\x00\x00\x00\x00\x00\x00'
p3866
tp3867
Rp3868
sg37
g38
sS'trials_2.thisIndex'
p3869
g2099
sg23
g24
sg2082
g2300
sg2085
g26
(g185
S'\x90\x01\x00\x00\x00\x00\x00\x00'
p3870
tp3871
Rp3872
sS'trials.thisIndex'
p3873
g26
(g135
S'R\x00\x00\x00'
p3874
tp3875
Rp3876
sg39
g44
sS'trials_2.thisRepN'
p3877
I0
sS'trials_2.thisTrialN'
p3878
I0
sS'trials.thisRepN'
p3879
I0
sS'trials.thisN'
p3880
I71
sg59
g149
sg36
g12
sS'trials.thisTrialN'
p3881
I71
sg2086
g1916
sg2083
g26
(g185
S'\x00\x00\x00\x00\x00\x00\x00\x00'
p3882
tp3883
Rp3884
sS'trials_2.thisN'
p3885
I0
sa(dp3886
g19
(lp3887
F1.0562250519360532
asg18
I0
sg25
g35
sg17
(lp3888
S'l'
p3889
asg56
g147
sg2084
g26
(g185
S'\x00\x00\x00\x00\x00\x00\x00\x00'
p3890
tp3891
Rp3892
sg37
g38
sS'trials_2.thisIndex'
p3893
g2099
sg23
g24
sg2082
Vfrogs/ab40.jpg
p3894
sg2085
g26
(g185
S'\x90\x01\x00\x00\x00\x00\x00\x00'
p3895
tp3896
Rp3897
sS'trials.thisIndex'
p3898
g26
(g135
S"'\x00\x00\x00"
p3899
tp3900
Rp3901
sg39
g44
sS'trials_2.thisRepN'
p3902
I0
sS'trials_2.thisTrialN'
p3903
I0
sS'trials.thisRepN'
p3904
I0
sS'trials.thisN'
p3905
I72
sg59
g149
sg36
g12
sS'trials.thisTrialN'
p3906
I72
sg2086
g203
sg2083
g26
(g185
S'\x00\x00\x00\x00\x00\x00\x00\x00'
p3907
tp3908
Rp3909
sS'trials_2.thisN'
p3910
I0
sa(dp3911
g19
(lp3912
F0.4558354771870654
asg18
I0
sg25
g35
sg17
(lp3913
S'l'
p3914
asg56
g147
sg2084
g26
(g185
S'\x00\x00\x00\x00\x00\x00\x00\x00'
p3915
tp3916
Rp3917
sg37
g38
sS'trials_2.thisIndex'
p3918
g2099
sg23
g24
sg2082
Vfrogs/ab5.jpg
p3919
sg2085
g26
(g185
S'\x90\x01\x00\x00\x00\x00\x00\x00'
p3920
tp3921
Rp3922
sS'trials.thisIndex'
p3923
g26
(g135
S'\x04\x00\x00\x00'
p3924
tp3925
Rp3926
sg39
g44
sS'trials_2.thisRepN'
p3927
I0
sS'trials_2.thisTrialN'
p3928
I0
sS'trials.thisRepN'
p3929
I0
sS'trials.thisN'
p3930
I73
sg59
g149
sg36
g12
sS'trials.thisTrialN'
p3931
I73
sg2086
g203
sg2083
g26
(g185
S'\x00\x00\x00\x00\x00\x00\x00\x00'
p3932
tp3933
Rp3934
sS'trials_2.thisN'
p3935
I0
sa(dp3936
g19
(lp3937
F0.45540931007417385
asg18
I0
sg25
g35
sg17
(lp3938
S'l'
p3939
asg56
g147
sg2084
g26
(g185
S'\x00\x00\x00\x00\x00\x00\x00\x00'
p3940
tp3941
Rp3942
sg37
g38
sS'trials_2.thisIndex'
p3943
g2099
sg23
g24
sg2082
Vfrogs/ab43.jpg
p3944
sg2085
g26
(g185
S'\x90\x01\x00\x00\x00\x00\x00\x00'
p3945
tp3946
Rp3947
sS'trials.thisIndex'
p3948
g26
(g135
S'*\x00\x00\x00'
p3949
tp3950
Rp3951
sg39
g44
sS'trials_2.thisRepN'
p3952
I0
sS'trials_2.thisTrialN'
p3953
I0
sS'trials.thisRepN'
p3954
I0
sS'trials.thisN'
p3955
I74
sg59
g149
sg36
g12
sS'trials.thisTrialN'
p3956
I74
sg2086
g203
sg2083
g26
(g185
S'\x00\x00\x00\x00\x00\x00\x00\x00'
p3957
tp3958
Rp3959
sS'trials_2.thisN'
p3960
I0
sa(dp3961
g19
(lp3962
F0.4862102588012931
asg18
I0
sg25
g35
sg17
(lp3963
S'l'
p3964
asg56
g147
sg2084
g26
(g185
S'\x00\x00\x00\x00\x00\x00\x00\x00'
p3965
tp3966
Rp3967
sg37
g38
sS'trials_2.thisIndex'
p3968
g2099
sg23
g24
sg2082
Vfrogs/ab32.jpg
p3969
sg2085
g26
(g185
S'\x90\x01\x00\x00\x00\x00\x00\x00'
p3970
tp3971
Rp3972
sS'trials.thisIndex'
p3973
g26
(g135
S'\x1f\x00\x00\x00'
p3974
tp3975
Rp3976
sg39
g44
sS'trials_2.thisRepN'
p3977
I0
sS'trials_2.thisTrialN'
p3978
I0
sS'trials.thisRepN'
p3979
I0
sS'trials.thisN'
p3980
I75
sg59
g149
sg36
g12
sS'trials.thisTrialN'
p3981
I75
sg2086
g203
sg2083
g26
(g185
S'\x00\x00\x00\x00\x00\x00\x00\x00'
p3982
tp3983
Rp3984
sS'trials_2.thisN'
p3985
I0
sa(dp3986
g19
(lp3987
F0.6668524547058041
asg18
I0
sg25
g35
sg17
(lp3988
S'l'
p3989
asg56
g147
sg2084
g26
(g185
S'\x00\x00\x00\x00\x00\x00\x00\x00'
p3990
tp3991
Rp3992
sg37
g38
sS'trials_2.thisIndex'
p3993
g2099
sg23
g24
sg2082
Vfrogs/ab13.jpg
p3994
sg2085
g26
(g185
S'\x90\x01\x00\x00\x00\x00\x00\x00'
p3995
tp3996
Rp3997
sS'trials.thisIndex'
p3998
g26
(g135
S'\x0c\x00\x00\x00'
p3999
tp4000
Rp4001
sg39
g44
sS'trials_2.thisRepN'
p4002
I0
sS'trials_2.thisTrialN'
p4003
I0
sS'trials.thisRepN'
p4004
I0
sS'trials.thisN'
p4005
I76
sg59
g149
sg36
g12
sS'trials.thisTrialN'
p4006
I76
sg2086
g203
sg2083
g26
(g185
S'\x00\x00\x00\x00\x00\x00\x00\x00'
p4007
tp4008
Rp4009
sS'trials_2.thisN'
p4010
I0
sa(dp4011
g19
(lp4012
F0.5749627940458595
asg18
I0
sg25
g35
sg17
(lp4013
S'l'
p4014
asg56
g147
sg2084
g26
(g185
S'\x00\x00\x00\x00\x00\x00\x00\x00'
p4015
tp4016
Rp4017
sg37
g38
sS'trials_2.thisIndex'
p4018
g2099
sg23
g24
sg2082
Vfrogs/ab74.jpg
p4019
sg2085
g26
(g185
S'\x90\x01\x00\x00\x00\x00\x00\x00'
p4020
tp4021
Rp4022
sS'trials.thisIndex'
p4023
g26
(g135
S'H\x00\x00\x00'
p4024
tp4025
Rp4026
sg39
g44
sS'trials_2.thisRepN'
p4027
I0
sS'trials_2.thisTrialN'
p4028
I0
sS'trials.thisRepN'
p4029
I0
sS'trials.thisN'
p4030
I77
sg59
g149
sg36
g12
sS'trials.thisTrialN'
p4031
I77
sg2086
g203
sg2083
g26
(g185
S'\x00\x00\x00\x00\x00\x00\x00\x00'
p4032
tp4033
Rp4034
sS'trials_2.thisN'
p4035
I0
sa(dp4036
g19
(lp4037
F0.06304372563317884
asg18
I0
sg25
g35
sg17
(lp4038
S'a'
p4039
asg56
g147
sg2084
g26
(g185
S'\x00\x00\x00\x00\x00\x00\x00\x00'
p4040
tp4041
Rp4042
sg37
g38
sS'trials_2.thisIndex'
p4043
g2099
sg23
g24
sg2082
g2300
sg2085
g26
(g185
S'\x90\x01\x00\x00\x00\x00\x00\x00'
p4044
tp4045
Rp4046
sS'trials.thisIndex'
p4047
g26
(g135
S'Q\x00\x00\x00'
p4048
tp4049
Rp4050
sg39
g44
sS'trials_2.thisRepN'
p4051
I0
sS'trials_2.thisTrialN'
p4052
I0
sS'trials.thisRepN'
p4053
I0
sS'trials.thisN'
p4054
I78
sg59
g149
sg36
g12
sS'trials.thisTrialN'
p4055
I78
sg2086
g1916
sg2083
g26
(g185
S'\x00\x00\x00\x00\x00\x00\x00\x00'
p4056
tp4057
Rp4058
sS'trials_2.thisN'
p4059
I0
sa(dp4060
g19
(lp4061
F0.755863813952601
asg18
I0
sg25
g35
sg17
(lp4062
S'l'
p4063
asg56
g147
sg2084
g26
(g185
S'\x00\x00\x00\x00\x00\x00\x00\x00'
p4064
tp4065
Rp4066
sg37
g38
sS'trials_2.thisIndex'
p4067
g2099
sg23
g24
sg2082
Vfrogs/ab34.jpg
p4068
sg2085
g26
(g185
S'\x90\x01\x00\x00\x00\x00\x00\x00'
p4069
tp4070
Rp4071
sS'trials.thisIndex'
p4072
g26
(g135
S'!\x00\x00\x00'
p4073
tp4074
Rp4075
sg39
g44
sS'trials_2.thisRepN'
p4076
I0
sS'trials_2.thisTrialN'
p4077
I0
sS'trials.thisRepN'
p4078
I0
sS'trials.thisN'
p4079
I79
sg59
g149
sg36
g12
sS'trials.thisTrialN'
p4080
I79
sg2086
g203
sg2083
g26
(g185
S'\x00\x00\x00\x00\x00\x00\x00\x00'
p4081
tp4082
Rp4083
sS'trials_2.thisN'
p4084
I0
sa(dp4085
g19
(lp4086
F0.4557471200241707
asg18
I0
sg25
g35
sg17
(lp4087
S'l'
p4088
asg56
g147
sg2084
g26
(g185
S'\x00\x00\x00\x00\x00\x00\x00\x00'
p4089
tp4090
Rp4091
sg37
g38
sS'trials_2.thisIndex'
p4092
g2099
sg23
g24
sg2082
Vfrogs/ab45.jpg
p4093
sg2085
g26
(g185
S'\x90\x01\x00\x00\x00\x00\x00\x00'
p4094
tp4095
Rp4096
sS'trials.thisIndex'
p4097
g26
(g135
S',\x00\x00\x00'
p4098
tp4099
Rp4100
sg39
g44
sS'trials_2.thisRepN'
p4101
I0
sS'trials_2.thisTrialN'
p4102
I0
sS'trials.thisRepN'
p4103
I0
sS'trials.thisN'
p4104
I80
sg59
g149
sg36
g12
sS'trials.thisTrialN'
p4105
I80
sg2086
g203
sg2083
g26
(g185
S'\x00\x00\x00\x00\x00\x00\x00\x00'
p4106
tp4107
Rp4108
sS'trials_2.thisN'
p4109
I0
sa(dp4110
g19
(lp4111
F0.5763345612649573
asg18
I0
sg25
g35
sg17
(lp4112
S'l'
p4113
asg56
g147
sg2084
g26
(g185
S'\x00\x00\x00\x00\x00\x00\x00\x00'
p4114
tp4115
Rp4116
sg37
g38
sS'trials_2.thisIndex'
p4117
g2099
sg23
g24
sg2082
Vfrogs/ab27.jpg
p4118
sg2085
g26
(g185
S'\x90\x01\x00\x00\x00\x00\x00\x00'
p4119
tp4120
Rp4121
sS'trials.thisIndex'
p4122
g26
(g135
S'\x1a\x00\x00\x00'
p4123
tp4124
Rp4125
sg39
g44
sS'trials_2.thisRepN'
p4126
I0
sS'trials_2.thisTrialN'
p4127
I0
sS'trials.thisRepN'
p4128
I0
sS'trials.thisN'
p4129
I81
sg59
g149
sg36
g12
sS'trials.thisTrialN'
p4130
I81
sg2086
g203
sg2083
g26
(g185
S'\x00\x00\x00\x00\x00\x00\x00\x00'
p4131
tp4132
Rp4133
sS'trials_2.thisN'
p4134
I0
sa(dp4135
g19
(lp4136
F0.7258661121304613
asg18
I0
sg25
g35
sg17
(lp4137
S'l'
p4138
asg56
g147
sg2084
g26
(g185
S'\x00\x00\x00\x00\x00\x00\x00\x00'
p4139
tp4140
Rp4141
sg37
g38
sS'trials_2.thisIndex'
p4142
g2099
sg23
g24
sg2082
Vfrogs/ab31.jpg
p4143
sg2085
g26
(g185
S'\x90\x01\x00\x00\x00\x00\x00\x00'
p4144
tp4145
Rp4146
sS'trials.thisIndex'
p4147
g26
(g135
S'\x1e\x00\x00\x00'
p4148
tp4149
Rp4150
sg39
g44
sS'trials_2.thisRepN'
p4151
I0
sS'trials_2.thisTrialN'
p4152
I0
sS'trials.thisRepN'
p4153
I0
sS'trials.thisN'
p4154
I82
sg59
g149
sg36
g12
sS'trials.thisTrialN'
p4155
I82
sg2086
g203
sg2083
g26
(g185
S'\x00\x00\x00\x00\x00\x00\x00\x00'
p4156
tp4157
Rp4158
sS'trials_2.thisN'
p4159
I0
sa(dp4160
g19
(lp4161
F0.5439436299202498
asg18
I0
sg25
g35
sg17
(lp4162
S'l'
p4163
asg56
g147
sg2084
g26
(g185
S'\x00\x00\x00\x00\x00\x00\x00\x00'
p4164
tp4165
Rp4166
sg37
g38
sS'trials_2.thisIndex'
p4167
g2099
sg23
g24
sg2082
Vfrogs/ab20.jpg
p4168
sg2085
g26
(g185
S'\x90\x01\x00\x00\x00\x00\x00\x00'
p4169
tp4170
Rp4171
sS'trials.thisIndex'
p4172
g26
(g135
S'\x13\x00\x00\x00'
p4173
tp4174
Rp4175
sg39
g44
sS'trials_2.thisRepN'
p4176
I0
sS'trials_2.thisTrialN'
p4177
I0
sS'trials.thisRepN'
p4178
I0
sS'trials.thisN'
p4179
I83
sg59
g149
sg36
g12
sS'trials.thisTrialN'
p4180
I83
sg2086
g203
sg2083
g26
(g185
S'\x00\x00\x00\x00\x00\x00\x00\x00'
p4181
tp4182
Rp4183
sS'trials_2.thisN'
p4184
I0
sa(dp4185
g19
(lp4186
F0.5757589009808726
asg18
I0
sg25
g35
sg17
(lp4187
S'a'
p4188
asg56
g147
sg2084
g26
(g185
S'\x00\x00\x00\x00\x00\x00\x00\x00'
p4189
tp4190
Rp4191
sg37
g38
sS'trials_2.thisIndex'
p4192
g2099
sg23
g24
sg2082
g2300
sg2085
g26
(g185
S'\x90\x01\x00\x00\x00\x00\x00\x00'
p4193
tp4194
Rp4195
sS'trials.thisIndex'
p4196
g26
(g135
S'X\x00\x00\x00'
p4197
tp4198
Rp4199
sg39
g44
sS'trials_2.thisRepN'
p4200
I0
sS'trials_2.thisTrialN'
p4201
I0
sS'trials.thisRepN'
p4202
I0
sS'trials.thisN'
p4203
I84
sg59
g149
sg36
g12
sS'trials.thisTrialN'
p4204
I84
sg2086
g1916
sg2083
g26
(g185
S'\x00\x00\x00\x00\x00\x00\x00\x00'
p4205
tp4206
Rp4207
sS'trials_2.thisN'
p4208
I0
sa(dp4209
g19
(lp4210
F0.15149459704844048
asg18
I0
sg25
g35
sg17
(lp4211
S'l'
p4212
asg56
g147
sg2084
g26
(g185
S'\x00\x00\x00\x00\x00\x00\x00\x00'
p4213
tp4214
Rp4215
sg37
g38
sS'trials_2.thisIndex'
p4216
g2099
sg23
g24
sg2082
Vfrogs/ab77.jpg
p4217
sg2085
g26
(g185
S'\x90\x01\x00\x00\x00\x00\x00\x00'
p4218
tp4219
Rp4220
sS'trials.thisIndex'
p4221
g26
(g135
S'K\x00\x00\x00'
p4222
tp4223
Rp4224
sg39
g44
sS'trials_2.thisRepN'
p4225
I0
sS'trials_2.thisTrialN'
p4226
I0
sS'trials.thisRepN'
p4227
I0
sS'trials.thisN'
p4228
I85
sg59
g149
sg36
g12
sS'trials.thisTrialN'
p4229
I85
sg2086
g203
sg2083
g26
(g185
S'\x00\x00\x00\x00\x00\x00\x00\x00'
p4230
tp4231
Rp4232
sS'trials_2.thisN'
p4233
I0
sa(dp4234
g19
(lp4235
F0.06207581311900867
asg18
I0
sg25
g35
sg17
(lp4236
S'l'
p4237
asg56
g147
sg2084
g26
(g185
S'\x00\x00\x00\x00\x00\x00\x00\x00'
p4238
tp4239
Rp4240
sg37
g38
sS'trials_2.thisIndex'
p4241
g2099
sg23
g24
sg2082
Vfrogs/ab63.jpg
p4242
sg2085
g26
(g185
S'\x90\x01\x00\x00\x00\x00\x00\x00'
p4243
tp4244
Rp4245
sS'trials.thisIndex'
p4246
g26
(g135
S'=\x00\x00\x00'
p4247
tp4248
Rp4249
sg39
g44
sS'trials_2.thisRepN'
p4250
I0
sS'trials_2.thisTrialN'
p4251
I0
sS'trials.thisRepN'
p4252
I0
sS'trials.thisN'
p4253
I86
sg59
g149
sg36
g12
sS'trials.thisTrialN'
p4254
I86
sg2086
g203
sg2083
g26
(g185
S'\x00\x00\x00\x00\x00\x00\x00\x00'
p4255
tp4256
Rp4257
sS'trials_2.thisN'
p4258
I0
sa(dp4259
g19
(lp4260
F0.03150245102006011
asg18
I0
sg25
g35
sg17
(lp4261
S'l'
p4262
asg56
g147
sg2084
g26
(g185
S'\x00\x00\x00\x00\x00\x00\x00\x00'
p4263
tp4264
Rp4265
sg37
g38
sS'trials_2.thisIndex'
p4266
g2099
sg23
g24
sg2082
Vfrogs/ab66.jpg
p4267
sg2085
g26
(g185
S'\x90\x01\x00\x00\x00\x00\x00\x00'
p4268
tp4269
Rp4270
sS'trials.thisIndex'
p4271
g26
(g135
S'@\x00\x00\x00'
p4272
tp4273
Rp4274
sg39
g44
sS'trials_2.thisRepN'
p4275
I0
sS'trials_2.thisTrialN'
p4276
I0
sS'trials.thisRepN'
p4277
I0
sS'trials.thisN'
p4278
I87
sg59
g149
sg36
g12
sS'trials.thisTrialN'
p4279
I87
sg2086
g203
sg2083
g26
(g185
S'\x00\x00\x00\x00\x00\x00\x00\x00'
p4280
tp4281
Rp4282
sS'trials_2.thisN'
p4283
I0
sa(dp4284
g19
(lp4285
F0.03231908537418349
asg18
I0
sg25
g35
sg17
(lp4286
S'l'
p4287
asg56
g147
sg2084
g26
(g185
S'\x00\x00\x00\x00\x00\x00\x00\x00'
p4288
tp4289
Rp4290
sg37
g38
sS'trials_2.thisIndex'
p4291
g2099
sg23
g24
sg2082
Vfrogs/ab52.jpg
p4292
sg2085
g26
(g185
S'\x90\x01\x00\x00\x00\x00\x00\x00'
p4293
tp4294
Rp4295
sS'trials.thisIndex'
p4296
g26
(g135
S'3\x00\x00\x00'
p4297
tp4298
Rp4299
sg39
g44
sS'trials_2.thisRepN'
p4300
I0
sS'trials_2.thisTrialN'
p4301
I0
sS'trials.thisRepN'
p4302
I0
sS'trials.thisN'
p4303
I88
sg59
g149
sg36
g12
sS'trials.thisTrialN'
p4304
I88
sg2086
g203
sg2083
g26
(g185
S'\x00\x00\x00\x00\x00\x00\x00\x00'
p4305
tp4306
Rp4307
sS'trials_2.thisN'
p4308
I0
sa(dp4309
g19
(lp4310
F0.0012298602596274577
asg18
I0
sg25
g35
sg17
(lp4311
S'a'
p4312
asg56
g147
sg2084
g26
(g185
S'\x00\x00\x00\x00\x00\x00\x00\x00'
p4313
tp4314
Rp4315
sg37
g38
sS'trials_2.thisIndex'
p4316
g2099
sg23
g24
sg2082
g2300
sg2085
g26
(g185
S'\x90\x01\x00\x00\x00\x00\x00\x00'
p4317
tp4318
Rp4319
sS'trials.thisIndex'
p4320
g26
(g135
S'V\x00\x00\x00'
p4321
tp4322
Rp4323
sg39
g44
sS'trials_2.thisRepN'
p4324
I0
sS'trials_2.thisTrialN'
p4325
I0
sS'trials.thisRepN'
p4326
I0
sS'trials.thisN'
p4327
I89
sg59
g149
sg36
g12
sS'trials.thisTrialN'
p4328
I89
sg2086
g1916
sg2083
g26
(g185
S'\x00\x00\x00\x00\x00\x00\x00\x00'
p4329
tp4330
Rp4331
sS'trials_2.thisN'
p4332
I0
sa(dp4333
g37
g38
sg39
g44
sS'trials_2.thisRepN'
p4334
I0
sS'trials_2.thisTrialN'
p4335
I0
sg25
g35
sg56
g147
sg59
g149
sg36
g12
sS'trials_2.thisIndex'
p4336
g2099
sg23
g24
sS'trials_2.thisN'
p4337
I0
sa(dp4338
g19
(lp4339
F1.9937663577948115
asg18
I0
sg25
g35
sg17
(lp4340
g407
asg56
g57
sg192
g1370
sg37
g38
sS'trials_2.thisIndex'
p4341
g170
sg15
g98
sg23
g24
sg179
g1362
sg197
g1374
sS'trials.thisIndex'
p4342
g26
(g135
S'1\x00\x00\x00'
p4343
tp4344
Rp4345
sg39
g44
sS'trials_2.thisRepN'
p4346
I0
sS'trials_2.thisTrialN'
p4347
I1
sS'trials.thisRepN'
p4348
I0
sS'trials.thisN'
p4349
I0
sg59
g60
sg36
g12
sS'trials.thisTrialN'
p4350
I0
sg202
g203
sg182
g1366
sg16
F3.1729738654685207
sS'trials_2.thisN'
p4351
I1
sa(dp4352
g19
(lp4353
F0.2155142676710966
asg18
I0
sg25
g35
sg17
(lp4354
g416
asg56
g57
sg192
g1478
sg37
g38
sS'trials_2.thisIndex'
p4355
g170
sg23
g24
sg179
g1470
sg197
g1482
sS'trials.thisIndex'
p4356
g26
(g135
S'7\x00\x00\x00'
p4357
tp4358
Rp4359
sg39
g44
sS'trials_2.thisRepN'
p4360
I0
sS'trials_2.thisTrialN'
p4361
I1
sS'trials.thisRepN'
p4362
I0
sS'trials.thisN'
p4363
I1
sg59
g60
sg36
g12
sS'trials.thisTrialN'
p4364
I1
sg202
g203
sg182
g1474
sS'trials_2.thisN'
p4365
I1
sa(dp4366
g19
(lp4367
F0.1227878915015026
asg18
I0
sg25
g35
sg17
(lp4368
g378
asg56
g57
sg192
g1046
sg37
g38
sS'trials_2.thisIndex'
p4369
g170
sg23
g24
sg179
g1038
sg197
g1050
sS'trials.thisIndex'
p4370
g26
(g135
S'\x1f\x00\x00\x00'
p4371
tp4372
Rp4373
sg39
g44
sS'trials_2.thisRepN'
p4374
I0
sS'trials_2.thisTrialN'
p4375
I1
sS'trials.thisRepN'
p4376
I0
sS'trials.thisN'
p4377
I2
sg59
g60
sg36
g12
sS'trials.thisTrialN'
p4378
I2
sg202
g203
sg182
g1042
sS'trials_2.thisN'
p4379
I1
sa(dp4380
g19
(lp4381
F0.847822196832567
asg18
I0
sg25
g35
sg17
(lp4382
g410
asg56
g57
sg192
g1406
sg37
g38
sS'trials_2.thisIndex'
p4383
g170
sg23
g24
sg179
g1398
sg197
g1410
sS'trials.thisIndex'
p4384
g26
(g135
S'3\x00\x00\x00'
p4385
tp4386
Rp4387
sg39
g44
sS'trials_2.thisRepN'
p4388
I0
sS'trials_2.thisTrialN'
p4389
I1
sS'trials.thisRepN'
p4390
I0
sS'trials.thisN'
p4391
I3
sg59
g60
sg36
g12
sS'trials.thisTrialN'
p4392
I3
sg202
g203
sg182
g1402
sS'trials_2.thisN'
p4393
I1
sa(dp4394
g19
(lp4395
F0.24288892211188795
asg18
I0
sg25
g35
sg17
(lp4396
g422
asg56
g57
sg192
g1550
sg37
g38
sS'trials_2.thisIndex'
p4397
g170
sg23
g24
sg179
g1542
sg197
g1554
sS'trials.thisIndex'
p4398
g26
(g135
S';\x00\x00\x00'
p4399
tp4400
Rp4401
sg39
g44
sS'trials_2.thisRepN'
p4402
I0
sS'trials_2.thisTrialN'
p4403
I1
sS'trials.thisRepN'
p4404
I0
sS'trials.thisN'
p4405
I4
sg59
g60
sg36
g12
sS'trials.thisTrialN'
p4406
I4
sg202
g203
sg182
g1546
sS'trials_2.thisN'
p4407
I1
sa(dp4408
g19
(lp4409
F0.30410659978952026
asg18
I0
sg25
g35
sg17
(lp4410
g372
asg56
g57
sg192
g974
sg37
g38
sS'trials_2.thisIndex'
p4411
g170
sg23
g24
sg179
g966
sg197
g978
sS'trials.thisIndex'
p4412
g26
(g135
S'\x1b\x00\x00\x00'
p4413
tp4414
Rp4415
sg39
g44
sS'trials_2.thisRepN'
p4416
I0
sS'trials_2.thisTrialN'
p4417
I1
sS'trials.thisRepN'
p4418
I0
sS'trials.thisN'
p4419
I5
sg59
g60
sg36
g12
sS'trials.thisTrialN'
p4420
I5
sg202
g203
sg182
g970
sS'trials_2.thisN'
p4421
I1
sa(dp4422
g19
(lp4423
F0.3643800161080435
asg18
I0
sg25
g35
sg17
(lp4424
g448
asg56
g57
sg192
g1856
sg37
g38
sS'trials_2.thisIndex'
p4425
g170
sg23
g24
sg179
g1848
sg197
g1860
sS'trials.thisIndex'
p4426
g26
(g135
S'M\x00\x00\x00'
p4427
tp4428
Rp4429
sg39
g44
sS'trials_2.thisRepN'
p4430
I0
sS'trials_2.thisTrialN'
p4431
I1
sS'trials.thisRepN'
p4432
I0
sS'trials.thisN'
p4433
I6
sg59
g60
sg36
g12
sS'trials.thisTrialN'
p4434
I6
sg202
g203
sg182
g1852
sS'trials_2.thisN'
p4435
I1
sa(dp4436
g19
(lp4437
F0.48808227033441653
asg18
I0
sg25
g35
sg17
(lp4438
g428
asg56
g57
sg192
g1622
sg37
g38
sS'trials_2.thisIndex'
p4439
g170
sg23
g24
sg179
g1614
sg197
g1626
sS'trials.thisIndex'
p4440
g26
(g135
S'?\x00\x00\x00'
p4441
tp4442
Rp4443
sg39
g44
sS'trials_2.thisRepN'
p4444
I0
sS'trials_2.thisTrialN'
p4445
I1
sS'trials.thisRepN'
p4446
I0
sS'trials.thisN'
p4447
I7
sg59
g60
sg36
g12
sS'trials.thisTrialN'
p4448
I7
sg202
g203
sg182
g1618
sS'trials_2.thisN'
p4449
I1
sa(dp4450
g19
(lp4451
F0.3633692637522472
asg18
I0
sg25
g35
sg17
(lp4452
g425
asg56
g57
sg192
g1586
sg37
g38
sS'trials_2.thisIndex'
p4453
g170
sg23
g24
sg179
g1578
sg197
g1590
sS'trials.thisIndex'
p4454
g26
(g135
S'=\x00\x00\x00'
p4455
tp4456
Rp4457
sg39
g44
sS'trials_2.thisRepN'
p4458
I0
sS'trials_2.thisTrialN'
p4459
I1
sS'trials.thisRepN'
p4460
I0
sS'trials.thisN'
p4461
I8
sg59
g60
sg36
g12
sS'trials.thisTrialN'
p4462
I8
sg202
g203
sg182
g1582
sS'trials_2.thisN'
p4463
I1
sa(dp4464
g19
(lp4465
F0.27942014498694334
asg18
I0
sg25
g35
sg17
(lp4466
g348
asg56
g57
sg192
g740
sg37
g38
sS'trials_2.thisIndex'
p4467
g170
sg23
g24
sg179
g732
sg197
g744
sS'trials.thisIndex'
p4468
g26
(g135
S'\x0e\x00\x00\x00'
p4469
tp4470
Rp4471
sg39
g44
sS'trials_2.thisRepN'
p4472
I0
sS'trials_2.thisTrialN'
p4473
I1
sS'trials.thisRepN'
p4474
I0
sS'trials.thisN'
p4475
I9
sg59
g60
sg36
g12
sS'trials.thisTrialN'
p4476
I9
sg202
g203
sg182
g736
sS'trials_2.thisN'
p4477
I1
sa(dp4478
g19
(lp4479
F0.3181794855190674
asg18
I0
sg25
g35
sg17
(lp4480
g435
asg56
g57
sg192
g1712
sg37
g38
sS'trials_2.thisIndex'
p4481
g170
sg23
g24
sg179
g1704
sg197
g1716
sS'trials.thisIndex'
p4482
g26
(g135
S'D\x00\x00\x00'
p4483
tp4484
Rp4485
sg39
g44
sS'trials_2.thisRepN'
p4486
I0
sS'trials_2.thisTrialN'
p4487
I1
sS'trials.thisRepN'
p4488
I0
sS'trials.thisN'
p4489
I10
sg59
g60
sg36
g12
sS'trials.thisTrialN'
p4490
I10
sg202
g203
sg182
g1708
sS'trials_2.thisN'
p4491
I1
sa(dp4492
g19
(lp4493
F0.3347522541153012
asg18
I0
sg25
g35
sg17
(lp4494
g358
asg56
g57
sg192
g830
sg37
g38
sS'trials_2.thisIndex'
p4495
g170
sg23
g24
sg179
g822
sg197
g834
sS'trials.thisIndex'
p4496
g26
(g135
S'\x13\x00\x00\x00'
p4497
tp4498
Rp4499
sg39
g44
sS'trials_2.thisRepN'
p4500
I0
sS'trials_2.thisTrialN'
p4501
I1
sS'trials.thisRepN'
p4502
I0
sS'trials.thisN'
p4503
I11
sg59
g60
sg36
g12
sS'trials.thisTrialN'
p4504
I11
sg202
g203
sg182
g826
sS'trials_2.thisN'
p4505
I1
sa(dp4506
g19
(lp4507
F0.401215580306598
asg18
I0
sg25
g35
sg17
(lp4508
g384
asg56
g57
sg192
g1118
sg37
g38
sS'trials_2.thisIndex'
p4509
g170
sg23
g24
sg179
g1110
sg197
g1122
sS'trials.thisIndex'
p4510
g26
(g135
S'#\x00\x00\x00'
p4511
tp4512
Rp4513
sg39
g44
sS'trials_2.thisRepN'
p4514
I0
sS'trials_2.thisTrialN'
p4515
I1
sS'trials.thisRepN'
p4516
I0
sS'trials.thisN'
p4517
I12
sg59
g60
sg36
g12
sS'trials.thisTrialN'
p4518
I12
sg202
g203
sg182
g1114
sS'trials_2.thisN'
p4519
I1
sa(dp4520
g19
(lp4521
F0.4181788161440636
asg18
I0
sg25
g35
sg17
(lp4522
g354
asg56
g57
sg192
g794
sg37
g38
sS'trials_2.thisIndex'
p4523
g170
sg23
g24
sg179
g786
sg197
g798
sS'trials.thisIndex'
p4524
g26
(g135
S'\x11\x00\x00\x00'
p4525
tp4526
Rp4527
sg39
g44
sS'trials_2.thisRepN'
p4528
I0
sS'trials_2.thisTrialN'
p4529
I1
sS'trials.thisRepN'
p4530
I0
sS'trials.thisN'
p4531
I13
sg59
g60
sg36
g12
sS'trials.thisTrialN'
p4532
I13
sg202
g203
sg182
g790
sS'trials_2.thisN'
p4533
I1
sa(dp4534
g19
(lp4535
F0.43454720303270733
asg18
I0
sg25
g35
sg17
(lp4536
g443
asg56
g57
sg192
g1802
sg37
g38
sS'trials_2.thisIndex'
p4537
g170
sg23
g24
sg179
g1794
sg197
g1806
sS'trials.thisIndex'
p4538
g26
(g135
S'J\x00\x00\x00'
p4539
tp4540
Rp4541
sg39
g44
sS'trials_2.thisRepN'
p4542
I0
sS'trials_2.thisTrialN'
p4543
I1
sS'trials.thisRepN'
p4544
I0
sS'trials.thisN'
p4545
I14
sg59
g60
sg36
g12
sS'trials.thisTrialN'
p4546
I14
sg202
g203
sg182
g1798
sS'trials_2.thisN'
p4547
I1
sa(dp4548
g19
(lp4549
F0.5844741298715235
asg18
I0
sg25
g35
sg17
(lp4550
g446
asg56
g57
sg192
g1838
sg37
g38
sS'trials_2.thisIndex'
p4551
g170
sg23
g24
sg179
g1830
sg197
g1842
sS'trials.thisIndex'
p4552
g26
(g135
S'L\x00\x00\x00'
p4553
tp4554
Rp4555
sg39
g44
sS'trials_2.thisRepN'
p4556
I0
sS'trials_2.thisTrialN'
p4557
I1
sS'trials.thisRepN'
p4558
I0
sS'trials.thisN'
p4559
I15
sg59
g60
sg36
g12
sS'trials.thisTrialN'
p4560
I15
sg202
g203
sg182
g1834
sS'trials_2.thisN'
p4561
I1
sa(dp4562
g19
(lp4563
F0.5347455603841809
asg18
I0
sg25
g35
sg17
(lp4564
g350
asg56
g57
sg192
g758
sg37
g38
sS'trials_2.thisIndex'
p4565
g170
sg23
g24
sg179
g750
sg197
g762
sS'trials.thisIndex'
p4566
g26
(g135
S'\x0f\x00\x00\x00'
p4567
tp4568
Rp4569
sg39
g44
sS'trials_2.thisRepN'
p4570
I0
sS'trials_2.thisTrialN'
p4571
I1
sS'trials.thisRepN'
p4572
I0
sS'trials.thisN'
p4573
I16
sg59
g60
sg36
g12
sS'trials.thisTrialN'
p4574
I16
sg202
g203
sg182
g754
sS'trials_2.thisN'
p4575
I1
sa(dp4576
g19
(lp4577
F0.7171000109301531
asg18
I0
sg25
g35
sg17
(lp4578
g454
asg56
g57
sg192
g1928
sg37
g38
sS'trials_2.thisIndex'
p4579
g170
sg23
g24
sg179
g1902
sg197
g1932
sS'trials.thisIndex'
p4580
g26
(g135
S'Q\x00\x00\x00'
p4581
tp4582
Rp4583
sg39
g44
sS'trials_2.thisRepN'
p4584
I0
sS'trials_2.thisTrialN'
p4585
I1
sS'trials.thisRepN'
p4586
I0
sS'trials.thisN'
p4587
I17
sg59
g60
sg36
g12
sS'trials.thisTrialN'
p4588
I17
sg202
g1916
sg182
g1924
sS'trials_2.thisN'
p4589
I1
sa(dp4590
g19
(lp4591
F0.43443742595263757
asg18
I0
sg25
g35
sg17
(lp4592
g375
asg56
g57
sg192
g1010
sg37
g38
sS'trials_2.thisIndex'
p4593
g170
sg23
g24
sg179
g1002
sg197
g1014
sS'trials.thisIndex'
p4594
g26
(g135
S'\x1d\x00\x00\x00'
p4595
tp4596
Rp4597
sg39
g44
sS'trials_2.thisRepN'
p4598
I0
sS'trials_2.thisTrialN'
p4599
I1
sS'trials.thisRepN'
p4600
I0
sS'trials.thisN'
p4601
I18
sg59
g60
sg36
g12
sS'trials.thisTrialN'
p4602
I18
sg202
g203
sg182
g1006
sS'trials_2.thisN'
p4603
I1
sa(dp4604
g19
(lp4605
F0.43453113808936905
asg18
I0
sg25
g35
sg17
(lp4606
g345
asg56
g57
sg192
g704
sg37
g38
sS'trials_2.thisIndex'
p4607
g170
sg23
g24
sg179
g696
sg197
g708
sS'trials.thisIndex'
p4608
g26
(g135
S'\x0c\x00\x00\x00'
p4609
tp4610
Rp4611
sg39
g44
sS'trials_2.thisRepN'
p4612
I0
sS'trials_2.thisTrialN'
p4613
I1
sS'trials.thisRepN'
p4614
I0
sS'trials.thisN'
p4615
I19
sg59
g60
sg36
g12
sS'trials.thisTrialN'
p4616
I19
sg202
g203
sg182
g700
sS'trials_2.thisN'
p4617
I1
sa(dp4618
g19
(lp4619
F0.4845720813682419
asg18
I0
sg25
g35
sg17
(lp4620
g388
asg56
g57
sg192
g1154
sg37
g38
sS'trials_2.thisIndex'
p4621
g170
sg23
g24
sg179
g1146
sg197
g1158
sS'trials.thisIndex'
p4622
g26
(g135
S'%\x00\x00\x00'
p4623
tp4624
Rp4625
sg39
g44
sS'trials_2.thisRepN'
p4626
I0
sS'trials_2.thisTrialN'
p4627
I1
sS'trials.thisRepN'
p4628
I0
sS'trials.thisN'
p4629
I20
sg59
g60
sg36
g12
sS'trials.thisTrialN'
p4630
I20
sg202
g203
sg182
g1150
sS'trials_2.thisN'
p4631
I1
sa(dp4632
g19
(lp4633
F0.4337256599465036
asg18
I0
sg25
g35
sg17
(lp4634
g360
asg56
g57
sg192
g848
sg37
g38
sS'trials_2.thisIndex'
p4635
g170
sg23
g24
sg179
g840
sg197
g852
sS'trials.thisIndex'
p4636
g26
(g135
S'\x14\x00\x00\x00'
p4637
tp4638
Rp4639
sg39
g44
sS'trials_2.thisRepN'
p4640
I0
sS'trials_2.thisTrialN'
p4641
I1
sS'trials.thisRepN'
p4642
I0
sS'trials.thisN'
p4643
I21
sg59
g60
sg36
g12
sS'trials.thisTrialN'
p4644
I21
sg202
g203
sg182
g844
sS'trials_2.thisN'
p4645
I1
sa(dp4646
g19
(lp4647
F0.4502136413648259
asg18
I0
sg25
g35
sg17
(lp4648
g390
asg56
g57
sg192
g1172
sg37
g38
sS'trials_2.thisIndex'
p4649
g170
sg23
g24
sg179
g1164
sg197
g1176
sS'trials.thisIndex'
p4650
g26
(g135
S'&\x00\x00\x00'
p4651
tp4652
Rp4653
sg39
g44
sS'trials_2.thisRepN'
p4654
I0
sS'trials_2.thisTrialN'
p4655
I1
sS'trials.thisRepN'
p4656
I0
sS'trials.thisN'
p4657
I22
sg59
g60
sg36
g12
sS'trials.thisTrialN'
p4658
I22
sg202
g203
sg182
g1168
sS'trials_2.thisN'
p4659
I1
sa(dp4660
g19
(lp4661
F0.40095943380583776
asg18
I0
sg25
g35
sg17
(lp4662
g341
asg56
g57
sg192
g650
sg37
g38
sS'trials_2.thisIndex'
p4663
g170
sg23
g24
sg179
g642
sg197
g654
sS'trials.thisIndex'
p4664
g26
(g135
S'\t\x00\x00\x00'
p4665
tp4666
Rp4667
sg39
g44
sS'trials_2.thisRepN'
p4668
I0
sS'trials_2.thisTrialN'
p4669
I1
sS'trials.thisRepN'
p4670
I0
sS'trials.thisN'
p4671
I23
sg59
g60
sg36
g12
sS'trials.thisTrialN'
p4672
I23
sg202
g203
sg182
g646
sS'trials_2.thisN'
p4673
I1
sa(dp4674
g19
(lp4675
F0.40112454566406086
asg18
I0
sg25
g35
sg17
(lp4676
g365
asg56
g57
sg192
g902
sg37
g38
sS'trials_2.thisIndex'
p4677
g170
sg23
g24
sg179
g894
sg197
g906
sS'trials.thisIndex'
p4678
g26
(g135
S'\x17\x00\x00\x00'
p4679
tp4680
Rp4681
sg39
g44
sS'trials_2.thisRepN'
p4682
I0
sS'trials_2.thisTrialN'
p4683
I1
sS'trials.thisRepN'
p4684
I0
sS'trials.thisN'
p4685
I24
sg59
g60
sg36
g12
sS'trials.thisTrialN'
p4686
I24
sg202
g203
sg182
g898
sS'trials_2.thisN'
p4687
I1
sa(dp4688
g19
(lp4689
F0.4009411376246135
asg18
I0
sg25
g35
sg17
(lp4690
g404
asg56
g57
sg192
g1334
sg37
g38
sS'trials_2.thisIndex'
p4691
g170
sg23
g24
sg179
g1326
sg197
g1338
sS'trials.thisIndex'
p4692
g26
(g135
S'/\x00\x00\x00'
p4693
tp4694
Rp4695
sg39
g44
sS'trials_2.thisRepN'
p4696
I0
sS'trials_2.thisTrialN'
p4697
I1
sS'trials.thisRepN'
p4698
I0
sS'trials.thisN'
p4699
I25
sg59
g60
sg36
g12
sS'trials.thisTrialN'
p4700
I25
sg202
g203
sg182
g1330
sS'trials_2.thisN'
p4701
I1
sa(dp4702
g19
(lp4703
F0.36793215241777943
asg18
I0
sg25
g35
sg17
(lp4704
g399
asg56
g57
sg192
g1280
sg37
g38
sS'trials_2.thisIndex'
p4705
g170
sg23
g24
sg179
g1272
sg197
g1284
sS'trials.thisIndex'
p4706
g26
(g135
S',\x00\x00\x00'
p4707
tp4708
Rp4709
sg39
g44
sS'trials_2.thisRepN'
p4710
I0
sS'trials_2.thisTrialN'
p4711
I1
sS'trials.thisRepN'
p4712
I0
sS'trials.thisN'
p4713
I26
sg59
g60
sg36
g12
sS'trials.thisTrialN'
p4714
I26
sg202
g203
sg182
g1276
sS'trials_2.thisN'
p4715
I1
sa(dp4716
g19
(lp4717
F0.4370676133039524
asg18
I0
sg25
g35
sg17
(lp4718
g412
asg56
g57
sg192
g1424
sg37
g38
sS'trials_2.thisIndex'
p4719
g170
sg23
g24
sg179
g1416
sg197
g1428
sS'trials.thisIndex'
p4720
g26
(g135
S'4\x00\x00\x00'
p4721
tp4722
Rp4723
sg39
g44
sS'trials_2.thisRepN'
p4724
I0
sS'trials_2.thisTrialN'
p4725
I1
sS'trials.thisRepN'
p4726
I0
sS'trials.thisN'
p4727
I27
sg59
g60
sg36
g12
sS'trials.thisTrialN'
p4728
I27
sg202
g203
sg182
g1420
sS'trials_2.thisN'
p4729
I1
sa(dp4730
g19
(lp4731
F0.01794810579303885
asg18
I0
sg25
g35
sg17
(lp4732
g419
asg56
g57
sg192
g1514
sg37
g38
sS'trials_2.thisIndex'
p4733
g170
sg23
g24
sg179
g1506
sg197
g1518
sS'trials.thisIndex'
p4734
g26
(g135
S'9\x00\x00\x00'
p4735
tp4736
Rp4737
sg39
g44
sS'trials_2.thisRepN'
p4738
I0
sS'trials_2.thisTrialN'
p4739
I1
sS'trials.thisRepN'
p4740
I0
sS'trials.thisN'
p4741
I28
sg59
g60
sg36
g12
sS'trials.thisTrialN'
p4742
I28
sg202
g203
sg182
g1510
sS'trials_2.thisN'
p4743
I1
sa(dp4744
g19
(lp4745
F0.6346011990681291
asg18
I0
sg25
g35
sg17
(lp4746
g430
asg56
g57
sg192
g1640
sg37
g38
sS'trials_2.thisIndex'
p4747
g170
sg23
g24
sg179
g1632
sg197
g1644
sS'trials.thisIndex'
p4748
g26
(g135
S'@\x00\x00\x00'
p4749
tp4750
Rp4751
sg39
g44
sS'trials_2.thisRepN'
p4752
I0
sS'trials_2.thisTrialN'
p4753
I1
sS'trials.thisRepN'
p4754
I0
sS'trials.thisN'
p4755
I29
sg59
g60
sg36
g12
sS'trials.thisTrialN'
p4756
I29
sg202
g203
sg182
g1636
sS'trials_2.thisN'
p4757
I1
sa(dp4758
g19
(lp4759
F0.3673100823070854
asg18
I0
sg25
g35
sg17
(lp4760
g327
asg56
g57
sg192
g488
sg37
g38
sS'trials_2.thisIndex'
p4761
g170
sg23
g24
sg179
g480
sg197
g492
sS'trials.thisIndex'
p4762
g26
(g135
S'\x00\x00\x00\x00'
p4763
tp4764
Rp4765
sg39
g44
sS'trials_2.thisRepN'
p4766
I0
sS'trials_2.thisTrialN'
p4767
I1
sS'trials.thisRepN'
p4768
I0
sS'trials.thisN'
p4769
I30
sg59
g60
sg36
g12
sS'trials.thisTrialN'
p4770
I30
sg202
g203
sg182
g484
sS'trials_2.thisN'
p4771
I1
sa(dp4772
g19
(lp4773
F0.4679234505747445
asg18
I0
sg25
g35
sg17
(lp4774
g337
asg56
g57
sg192
g614
sg37
g38
sS'trials_2.thisIndex'
p4775
g170
sg23
g24
sg179
g606
sg197
g618
sS'trials.thisIndex'
p4776
g26
(g135
S'\x07\x00\x00\x00'
p4777
tp4778
Rp4779
sg39
g44
sS'trials_2.thisRepN'
p4780
I0
sS'trials_2.thisTrialN'
p4781
I1
sS'trials.thisRepN'
p4782
I0
sS'trials.thisN'
p4783
I31
sg59
g60
sg36
g12
sS'trials.thisTrialN'
p4784
I31
sg202
g203
sg182
g610
sS'trials_2.thisN'
p4785
I1
sa(dp4786
g19
(lp4787
F0.4178209250239888
asg18
I0
sg25
g35
sg17
(lp4788
g369
asg56
g57
sg192
g938
sg37
g38
sS'trials_2.thisIndex'
p4789
g170
sg23
g24
sg179
g930
sg197
g942
sS'trials.thisIndex'
p4790
g26
(g135
S'\x19\x00\x00\x00'
p4791
tp4792
Rp4793
sg39
g44
sS'trials_2.thisRepN'
p4794
I0
sS'trials_2.thisTrialN'
p4795
I1
sS'trials.thisRepN'
p4796
I0
sS'trials.thisN'
p4797
I32
sg59
g60
sg36
g12
sS'trials.thisTrialN'
p4798
I32
sg202
g203
sg182
g934
sS'trials_2.thisN'
p4799
I1
sa(dp4800
g19
(lp4801
F0.3011350324959494
asg18
I0
sg25
g35
sg17
(lp4802
g396
asg56
g57
sg192
g1244
sg37
g38
sS'trials_2.thisIndex'
p4803
g170
sg23
g24
sg179
g1236
sg197
g1248
sS'trials.thisIndex'
p4804
g26
(g135
S'*\x00\x00\x00'
p4805
tp4806
Rp4807
sg39
g44
sS'trials_2.thisRepN'
p4808
I0
sS'trials_2.thisTrialN'
p4809
I1
sS'trials.thisRepN'
p4810
I0
sS'trials.thisN'
p4811
I33
sg59
g60
sg36
g12
sS'trials.thisTrialN'
p4812
I33
sg202
g203
sg182
g1240
sS'trials_2.thisN'
p4813
I1
sa(dp4814
g19
(lp4815
F0.3174284496635664
asg18
I0
sg25
g35
sg17
(lp4816
g330
asg56
g57
sg192
g524
sg37
g38
sS'trials_2.thisIndex'
p4817
g170
sg23
g24
sg179
g516
sg197
g528
sS'trials.thisIndex'
p4818
g26
(g135
S'\x02\x00\x00\x00'
p4819
tp4820
Rp4821
sg39
g44
sS'trials_2.thisRepN'
p4822
I0
sS'trials_2.thisTrialN'
p4823
I1
sS'trials.thisRepN'
p4824
I0
sS'trials.thisN'
p4825
I34
sg59
g60
sg36
g12
sS'trials.thisTrialN'
p4826
I34
sg202
g203
sg182
g520
sS'trials_2.thisN'
p4827
I1
sa(dp4828
g19
(lp4829
F0.04846881059347652
asg18
I0
sg25
g35
sg17
(lp4830
g460
asg56
g57
sg192
g2013
sg37
g38
sS'trials_2.thisIndex'
p4831
g170
sg23
g24
sg179
g1902
sg197
g2017
sS'trials.thisIndex'
p4832
g26
(g135
S'V\x00\x00\x00'
p4833
tp4834
Rp4835
sg39
g44
sS'trials_2.thisRepN'
p4836
I0
sS'trials_2.thisTrialN'
p4837
I1
sS'trials.thisRepN'
p4838
I0
sS'trials.thisN'
p4839
I35
sg59
g60
sg36
g12
sS'trials.thisTrialN'
p4840
I35
sg202
g1916
sg182
g2009
sS'trials_2.thisN'
p4841
I1
sa(dp4842
g19
(lp4843
F0.16808030683750985
asg18
I0
sg25
g35
sg17
(lp4844
g386
asg56
g57
sg192
g1136
sg37
g38
sS'trials_2.thisIndex'
p4845
g170
sg23
g24
sg179
g1128
sg197
g1140
sS'trials.thisIndex'
p4846
g26
(g135
S'$\x00\x00\x00'
p4847
tp4848
Rp4849
sg39
g44
sS'trials_2.thisRepN'
p4850
I0
sS'trials_2.thisTrialN'
p4851
I1
sS'trials.thisRepN'
p4852
I0
sS'trials.thisN'
p4853
I36
sg59
g60
sg36
g12
sS'trials.thisTrialN'
p4854
I36
sg202
g203
sg182
g1132
sS'trials_2.thisN'
p4855
I1
sa(dp4856
g19
(lp4857
F0.0180547591226059
asg18
I0
sg25
g35
sg17
(lp4858
g339
asg56
g57
sg192
g632
sg37
g38
sS'trials_2.thisIndex'
p4859
g170
sg23
g24
sg179
g624
sg197
g636
sS'trials.thisIndex'
p4860
g26
(g135
S'\x08\x00\x00\x00'
p4861
tp4862
Rp4863
sg39
g44
sS'trials_2.thisRepN'
p4864
I0
sS'trials_2.thisTrialN'
p4865
I1
sS'trials.thisRepN'
p4866
I0
sS'trials.thisN'
p4867
I37
sg59
g60
sg36
g12
sS'trials.thisTrialN'
p4868
I37
sg202
g203
sg182
g628
sS'trials_2.thisN'
p4869
I1
sa(dp4870
g19
(lp4871
F1.0513172133578337
asg18
I0
sg25
g35
sg17
(lp4872
g394
asg56
g57
sg192
g1226
sg37
g38
sS'trials_2.thisIndex'
p4873
g170
sg23
g24
sg179
g1218
sg197
g1230
sS'trials.thisIndex'
p4874
g26
(g135
S')\x00\x00\x00'
p4875
tp4876
Rp4877
sg39
g44
sS'trials_2.thisRepN'
p4878
I0
sS'trials_2.thisTrialN'
p4879
I1
sS'trials.thisRepN'
p4880
I0
sS'trials.thisN'
p4881
I38
sg59
g60
sg36
g12
sS'trials.thisTrialN'
p4882
I38
sg202
g203
sg182
g1222
sS'trials_2.thisN'
p4883
I1
sa(dp4884
g19
(lp4885
F0.0010607321601128206
asg18
I0
sg25
g35
sg17
(lp4886
g402
asg56
g57
sg192
g1316
sg37
g38
sS'trials_2.thisIndex'
p4887
g170
sg23
g24
sg179
g1308
sg197
g1320
sS'trials.thisIndex'
p4888
g26
(g135
S'.\x00\x00\x00'
p4889
tp4890
Rp4891
sg39
g44
sS'trials_2.thisRepN'
p4892
I0
sS'trials_2.thisTrialN'
p4893
I1
sS'trials.thisRepN'
p4894
I0
sS'trials.thisN'
p4895
I39
sg59
g60
sg36
g12
sS'trials.thisTrialN'
p4896
I39
sg202
g203
sg182
g1312
sS'trials_2.thisN'
p4897
I1
sa(dp4898
g19
(lp4899
F0.4012267365178559
asg18
I0
sg25
g35
sg17
(lp4900
g438
asg56
g57
sg192
g1748
sg37
g38
sS'trials_2.thisIndex'
p4901
g170
sg23
g24
sg179
g1740
sg197
g1752
sS'trials.thisIndex'
p4902
g26
(g135
S'F\x00\x00\x00'
p4903
tp4904
Rp4905
sg39
g44
sS'trials_2.thisRepN'
p4906
I0
sS'trials_2.thisTrialN'
p4907
I1
sS'trials.thisRepN'
p4908
I0
sS'trials.thisN'
p4909
I40
sg59
g60
sg36
g12
sS'trials.thisTrialN'
p4910
I40
sg202
g203
sg182
g1744
sS'trials_2.thisN'
p4911
I1
sa(dp4912
g19
(lp4913
F0.45128552972892066
asg18
I0
sg25
g35
sg17
(lp4914
g356
asg56
g57
sg192
g812
sg37
g38
sS'trials_2.thisIndex'
p4915
g170
sg23
g24
sg179
g804
sg197
g816
sS'trials.thisIndex'
p4916
g26
(g135
S'\x12\x00\x00\x00'
p4917
tp4918
Rp4919
sg39
g44
sS'trials_2.thisRepN'
p4920
I0
sS'trials_2.thisTrialN'
p4921
I1
sS'trials.thisRepN'
p4922
I0
sS'trials.thisN'
p4923
I41
sg59
g60
sg36
g12
sS'trials.thisTrialN'
p4924
I41
sg202
g203
sg182
g808
sS'trials_2.thisN'
p4925
I1
sa(dp4926
g19
(lp4927
F8.249086864459969
asg18
I0
sg25
g35
sg17
(lp4928
g362
asg56
g57
sg192
g866
sg37
g38
sS'trials_2.thisIndex'
p4929
g170
sg23
g24
sg179
g858
sg197
g870
sS'trials.thisIndex'
p4930
g26
(g135
S'\x15\x00\x00\x00'
p4931
tp4932
Rp4933
sg39
g44
sS'trials_2.thisRepN'
p4934
I0
sS'trials_2.thisTrialN'
p4935
I1
sS'trials.thisRepN'
p4936
I0
sS'trials.thisN'
p4937
I42
sg59
g60
sg36
g12
sS'trials.thisTrialN'
p4938
I42
sg202
g203
sg182
g862
sS'trials_2.thisN'
p4939
I1
sa(dp4940
g19
(lp4941
F0.15201224505290156
asg18
I0
sg25
g35
sg17
(lp4942
g367
asg56
g57
sg192
g920
sg37
g38
sS'trials_2.thisIndex'
p4943
g170
sg23
g24
sg179
g912
sg197
g924
sS'trials.thisIndex'
p4944
g26
(g135
S'\x18\x00\x00\x00'
p4945
tp4946
Rp4947
sg39
g44
sS'trials_2.thisRepN'
p4948
I0
sS'trials_2.thisTrialN'
p4949
I1
sS'trials.thisRepN'
p4950
I0
sS'trials.thisN'
p4951
I43
sg59
g60
sg36
g12
sS'trials.thisTrialN'
p4952
I43
sg202
g203
sg182
g916
sS'trials_2.thisN'
p4953
I1
sa(dp4954
g19
(lp4955
F0.15340275468770415
asg18
I0
sg25
g35
sg17
(lp4956
g352
asg56
g57
sg192
g776
sg37
g38
sS'trials_2.thisIndex'
p4957
g170
sg23
g24
sg179
g768
sg197
g780
sS'trials.thisIndex'
p4958
g26
(g135
S'\x10\x00\x00\x00'
p4959
tp4960
Rp4961
sg39
g44
sS'trials_2.thisRepN'
p4962
I0
sS'trials_2.thisTrialN'
p4963
I1
sS'trials.thisRepN'
p4964
I0
sS'trials.thisN'
p4965
I44
sg59
g60
sg36
g12
sS'trials.thisTrialN'
p4966
I44
sg202
g203
sg182
g772
sS'trials_2.thisN'
p4967
I1
sa(dp4968
g19
(lp4969
F0.1218681737955194
asg18
I0
sg25
g35
sg17
(lp4970
g380
asg56
g57
sg192
g1064
sg37
g38
sS'trials_2.thisIndex'
p4971
g170
sg23
g24
sg179
g1056
sg197
g1068
sS'trials.thisIndex'
p4972
g26
(g135
S' \x00\x00\x00'
p4973
tp4974
Rp4975
sg39
g44
sS'trials_2.thisRepN'
p4976
I0
sS'trials_2.thisTrialN'
p4977
I1
sS'trials.thisRepN'
p4978
I0
sS'trials.thisN'
p4979
I45
sg59
g60
sg36
g12
sS'trials.thisTrialN'
p4980
I45
sg202
g203
sg182
g1060
sS'trials_2.thisN'
p4981
I1
sa(dp4982
g19
(lp4983
F0.2121959654687089
asg18
I0
sg25
g35
sg17
(lp4984
g452
asg56
g57
sg192
g1910
sg37
g38
sS'trials_2.thisIndex'
p4985
g170
sg23
g24
sg179
g1902
sg197
g1914
sS'trials.thisIndex'
p4986
g26
(g135
S'P\x00\x00\x00'
p4987
tp4988
Rp4989
sg39
g44
sS'trials_2.thisRepN'
p4990
I0
sS'trials_2.thisTrialN'
p4991
I1
sS'trials.thisRepN'
p4992
I0
sS'trials.thisN'
p4993
I46
sg59
g60
sg36
g12
sS'trials.thisTrialN'
p4994
I46
sg202
g1916
sg182
g1906
sS'trials_2.thisN'
p4995
I1
sa(dp4996
g19
(lp4997
F18.199033426230017
asg18
I0
sg25
g35
sg17
(lp4998
g333
asg56
g57
sg192
g560
sg37
g38
sS'trials_2.thisIndex'
p4999
g170
sg23
g24
sg179
g552
sg197
g564
sS'trials.thisIndex'
p5000
g26
(g135
S'\x04\x00\x00\x00'
p5001
tp5002
Rp5003
sg39
g44
sS'trials_2.thisRepN'
p5004
I0
sS'trials_2.thisTrialN'
p5005
I1
sS'trials.thisRepN'
p5006
I0
sS'trials.thisN'
p5007
I47
sg59
g60
sg36
g12
sS'trials.thisTrialN'
p5008
I47
sg202
g203
sg182
g556
sS'trials_2.thisN'
p5009
I1
sasS'loops'
p5010
(lp5011
g49
ag0
(g47
g2
Ntp5012
Rp5013
(dp5014
g51
Nsg52
(lp5015
sg63
I444710864
sg11
g121
sg6
I-1
sg65
I1
sg20
I01
sg21
g22
sg66
g0
(g67
g68
(dp5016
g70
g71
(g72
g73
g74
g75
tp5017
Rp5018
(I1
(I90
I1
tp5019
g81
I00
S'\x00\x00\x80?\x00\x00\x80?\x00\x00\x80?\x00\x00\x80?\x00\x00\x80?\x00\x00\x80?\x00\x00\x80?\x00\x00\x80?\x00\x00\x80?\x00\x00\x80?\x00\x00\x80?\x00\x00\x80?\x00\x00\x80?\x00\x00\x80?\x00\x00\x80?\x00\x00\x80?\x00\x00\x80?\x00\x00\x80?\x00\x00\x80?\x00\x00\x80?\x00\x00\x80?\x00\x00\x80?\x00\x00\x80?\x00\x00\x80?\x00\x00\x80?\x00\x00\x80?\x00\x00\x80?\x00\x00\x80?\x00\x00\x80?\x00\x00\x80?\x00\x00\x80?\x00\x00\x80?\x00\x00\x80?\x00\x00\x80?\x00\x00\x80?\x00\x00\x80?\x00\x00\x80?\x00\x00\x80?\x00\x00\x80?\x00\x00\x80?\x00\x00\x80?\x00\x00\x80?\x00\x00\x80?\x00\x00\x80?\x00\x00\x80?\x00\x00\x80?\x00\x00\x80?\x00\x00\x80?\x00\x00\x80?\x00\x00\x80?\x00\x00\x80?\x00\x00\x80?\x00\x00\x80?\x00\x00\x80?\x00\x00\x80?\x00\x00\x80?\x00\x00\x80?\x00\x00\x80?\x00\x00\x80?\x00\x00\x80?\x00\x00\x80?\x00\x00\x80?\x00\x00\x80?\x00\x00\x80?\x00\x00\x80?\x00\x00\x80?\x00\x00\x80?\x00\x00\x80?\x00\x00\x80?\x00\x00\x80?\x00\x00\x80?\x00\x00\x80?\x00\x00\x80?\x00\x00\x80?\x00\x00\x80?\x00\x00\x80?\x00\x00\x80?\x00\x00\x80?\x00\x00\x80?\x00\x00\x80?\x00\x00\x80?\x00\x00\x80?\x00\x00\x80?\x00\x00\x80?\x00\x00\x80?\x00\x00\x80?\x00\x00\x80?\x00\x00\x80?\x00\x00\x80?\x00\x00\x80?'
p5020
S'\x00\x00\x00\x00\x00\x00\x00\x00\x00\x00\x00\x00\x00\x00\x00\x00\x00\x00\x00\x00\x00\x00\x00\x00\x00\x00\x00\x00\x00\x00\x00\x00\x00\x00\x00\x00\x00\x00\x00\x00\x00\x00\x00\x00\x00\x00\x00\x00\x00\x00\x00\x00\x00\x00\x00\x00\x00\x00\x00\x00\x00\x00\x00\x00\x00\x00\x00\x00\x00\x00\x00\x00\x00\x00\x00\x00\x00\x00\x00\x00\x00\x00\x00\x00\x00\x00\x00\x00\x00\x00'
p5021
Ntp5022
bsg18
g71
(g72
g73
g74
g75
tp5023
Rp5024
(I1
(I90
I1
tp5025
g81
I00
S'\x00\x00\x00\x00\x00\x00\x00\x00\x00\x00\x00\x00\x00\x00\x00\x00\x00\x00\x00\x00\x00\x00\x00\x00\x00\x00\x00\x00\x00\x00\x00\x00\x00\x00\x00\x00\x00\x00\x00\x00\x00\x00\x00\x00\x00\x00\x00\x00\x00\x00\x00\x00\x00\x00\x00\x00\x00\x00\x00\x00\x00\x00\x00\x00\x00\x00\x00\x00\x00\x00\x00\x00\x00\x00\x00\x00\x00\x00\x00\x00\x00\x00\x00\x00\x00\x00\x00\x00\x00\x00\x00\x00\x00\x00\x00\x00\x00\x00\x00\x00\x00\x00\x00\x00\x00\x00\x00\x00\x00\x00\x00\x00\x00\x00\x00\x00\x00\x00\x00\x00\x00\x00\x00\x00\x00\x00\x00\x00\x00\x00\x00\x00\x00\x00\x00\x00\x00\x00\x00\x00\x00\x00\x00\x00\x00\x00\x00\x00\x00\x00\x00\x00\x00\x00\x00\x00\x00\x00\x00\x00\x00\x00\x00\x00\x00\x00\x00\x00\x00\x00\x00\x00\x00\x00\x00\x00\x00\x00\x00\x00\x00\x00\x00\x00\x00\x00\x00\x00\x00\x00\x00\x00\x00\x00\x00\x00\x00\x00\x00\x00\x00\x00\x00\x00\x00\x00\x00\x00\x00\x00\x00\x00\x00\x00\x00\x00\x00\x00\x00\x00\x00\x00\x00\x00\x00\x00\x00\x00\x00\x00\x00\x00\x00\x00\x00\x00\x00\x00\x00\x00\x00\x00\x00\x00\x00\x00\x00\x00\x00\x00\x00\x00\x00\x00\x00\x00\x00\x00\x00\x00\x00\x00\x00\x00\x00\x00\x00\x00\x00\x00\x00\x00\x00\x00\x00\x00\x00\x00\x00\x00\x00\x00\x00\x00\x00\x00\x00\x00\x00\x00\x00\x00\x00\x00\x00\x00\x00\x00\x00\x00\x00\x00\x00\x00\x00\x00\x00\x00\x00\x00\x00\x00\x00\x00\x00\x00\x00\x00\x00\x00\x00\x00\x00\x00\x00\x00\x00\x00\x00\x00\x00\x00\x00\x00\x00\x00\x00\x00\x00\x00\x00\x00\x00\x00\x00\x00\x00\x00\x00\x00\x00\x00\x00\x00\x00\x00\x00\x00\x00\x00'
p5026
S'\x00\x00\x00\x00\x00\x00\x00\x00\x00\x00\x00\x00\x00\x00\x00\x00\x00\x00\x00\x00\x00\x00\x00\x00\x00\x00\x00\x00\x00\x00\x00\x00\x00\x00\x00\x00\x00\x00\x00\x00\x00\x00\x00\x00\x00\x00\x00\x00\x00\x00\x00\x00\x00\x00\x00\x00\x00\x00\x00\x00\x00\x00\x00\x00\x00\x00\x00\x00\x00\x00\x00\x00\x00\x00\x00\x00\x00\x00\x00\x00\x00\x00\x00\x00\x00\x00\x00\x00\x00\x00'
p5027
Ntp5028
bsg19
g87
(g73
(I0
tp5029
g75
tp5030
Rp5031
(I1
(I90
I1
tp5032
g94
I00
(lp5033
(lp5034
F0.05108382551406976
aa(lp5035
F1.7503397065011086
aa(lp5036
F0.03426294287055498
aa(lp5037
F0.6341223746640026
aa(lp5038
F0.4558354771870654
aa(lp5039
F0.15061905793118058
aa(lp5040
F0.051159241469576955
aa(lp5041
F0.13440418045502156
aa(lp5042
F0.484308348641207
aa(lp5043
F0.300747242741636
aa(lp5044
F0.01754380484635476
aa(lp5045
F0.6349831875995733
aa(lp5046
F0.6668524547058041
aa(lp5047
F0.9678955600538757
aa(lp5048
F0.10116046865005046
aa(lp5049
F0.3175386729926686
aa(lp5050
F0.9174114922352601
aa(lp5051
F1.267568683186255
aa(lp5052
F0.00101655357866548
aa(lp5053
F0.5439436299202498
aa(lp5054
F0.41756076228193706
aa(lp5055
F0.15055435192334699
aa(lp5056
F1.10111272008362
aa(lp5057
F0.1836347368589486
aa(lp5058
F0.15128753784665605
aa(lp5059
F0.6341732469663839
aa(lp5060
F0.5763345612649573
aa(lp5061
F0.08553285391099053
aa(lp5062
F0.0344972232269356
aa(lp5063
F0.08424899761303095
aa(lp5064
F0.7258661121304613
aa(lp5065
F0.4862102588012931
aa(lp5066
F0.46754770951520186
aa(lp5067
F0.755863813952601
aa(lp5068
F0.9841804985044291
aa(lp5069
F0.01762100579799153
aa(lp5070
F0.23467126004834427
aa(lp5071
F0.051208328775828704
aa(lp5072
F0.4677494137431495
aa(lp5073
F1.0562250519360532
aa(lp5074
F0.11795859262201702
aa(lp5075
F1.20084028551355
aa(lp5076
F0.45540931007417385
aa(lp5077
F0.0009915636765072122
aa(lp5078
F0.4557471200241707
aa(lp5079
F0.001026817291858606
aa(lp5080
F0.4618892813377897
aa(lp5081
F0.0010094136086991057
aa(lp5082
F0.2842168677379959
aa(lp5083
F0.8667605275550159
aa(lp5084
F0.03393628913181601
aa(lp5085
F0.03231908537418349
aa(lp5086
F14.429480053819134
aa(lp5087
F1.317170964408433
aa(lp5088
F0.0009763912312337197
aa(lp5089
F0.317578389083792
aa(lp5090
F0.16786967765074223
aa(lp5091
F0.15112778096226975
aa(lp5092
F0.050549220068205614
aa(lp5093
F0.11774617843911983
aa(lp5094
F0.6676485616262653
aa(lp5095
F0.06207581311900867
aa(lp5096
F1.0173639667846146
aa(lp5097
F1.4169953657110455
aa(lp5098
F0.03150245102006011
aa(lp5099
F0.5848891407731571
aa(lp5100
F2.933428681717487
aa(lp5101
F0.5344349715815042
aa(lp5102
F0.48436725341161946
aa(lp5103
F0.06767087404296035
aa(lp5104
F0.0011415031040087342
aa(lp5105
F0.23429105652030557
aa(lp5106
F0.5749627940458595
aa(lp5107
F0.4335235094767995
aa(lp5108
F0.6176763405819656
aa(lp5109
F0.15149459704844048
aa(lp5110
F0.13389411866955925
aa(lp5111
F0.01777719269739464
aa(lp5112
F0.16784156401263317
aa(lp5113
F0.10096278065611841
aa(lp5114
F0.7508185309052351
aa(lp5115
F0.06304372563317884
aa(lp5116
F1.0297839488921454
aa(lp5117
F0.16770233454735717
aa(lp5118
F0.08467962720169453
aa(lp5119
F0.2177664827395347
aa(lp5120
F0.0012298602596274577
aa(lp5121
F0.1676456610148307
aa(lp5122
F0.5757589009808726
aa(lp5123
F1.43406748612324
aatp5124
bsg103
g71
(g72
g73
g74
g75
tp5125
Rp5126
(I1
(I90
I1
tp5127
g81
I00
S'\x00\x00\x10A\x00\x00dB\x00\x00@B\x00\x00\x0cB\x00\x00\x92B\x00\x00\x80@\x00\x00\x88A\x00\x00\x86B\x00\x00\x00B\x00\x00\xd8A\x00\x00\x98A\x00\x00tB\x00\x00\x98B\x00\x00pA\x00\x008B\x00\x00\x88B\x00\x00\xb8A\x00\x00PA\x00\x00\xa0A\x00\x00\xa6B\x00\x00\x08B\x00\x00`A\x00\x00 A\x00\x00\xd0A\x00\x00\x8cB\x00\x00\x8aB\x00\x00\xa2B\x00\x00\xe8A\x00\x000A\x00\x00 B\x00\x00\xa4B\x00\x00\x96B\x00\x00\x82B\x00\x00\x9eB\x00\x00\x00\x00\x00\x00(B\x00\x00HB\x00\x00\xc0@\x00\x00pB\x00\x00\x90B\x00\x00\x80A\x00\x00\xa0@\x00\x00\x94B\x00\x00<B\x00\x00\xa0B\x00\x00@A\x00\x00\x80B\x00\x00TB\x00\x00\x04B\x00\x00\x14B\x00\x00\xe0@\x00\x00\xb0B\x00\x00@@\x00\x00\x1cB\x00\x00PB\x00\x00\xb0A\x00\x00hB\x00\x00LB\x00\x00\xa8A\x00\x00\\B\x00\x00lB\x00\x00\xacB\x00\x00\x18B\x00\x00\xf8A\x00\x00\xaeB\x00\x00|B\x00\x00\x90A\x00\x00DB\x00\x004B\x00\x00\xc8A\x00\x00,B\x00\x00\xf0A\x00\x00\x9aB\x00\x00xB\x00\x00\x10B\x00\x00\xaaB\x00\x00XB\x00\x00$B\x00\x00\x00@\x00\x00\x80?\x00\x000B\x00\x00\x9cB\x00\x00\x8eB\x00\x00`B\x00\x00\x84B\x00\x00\xe0A\x00\x00\xb2B\x00\x00\xc0A\x00\x00\xa8B\x00\x00\x00A'
p5128
S'\x00\x00\x00\x00\x00\x00\x00\x00\x00\x00\x00\x00\x00\x00\x00\x00\x00\x00\x00\x00\x00\x00\x00\x00\x00\x00\x00\x00\x00\x00\x00\x00\x00\x00\x00\x00\x00\x00\x00\x00\x00\x00\x00\x00\x00\x00\x00\x00\x00\x00\x00\x00\x00\x00\x00\x00\x00\x00\x00\x00\x00\x00\x00\x00\x00\x00\x00\x00\x00\x00\x00\x00\x00\x00\x00\x00\x00\x00\x00\x00\x00\x00\x00\x00\x00\x00\x00\x00\x00\x00'
p5129
Ntp5130
bsg17
g87
(g73
(I0
tp5131
g75
tp5132
Rp5133
(I1
(I90
I1
tp5134
g94
I00
(lp5135
(lp5136
g2320
aa(lp5137
g3516
aa(lp5138
g3292
aa(lp5139
g2968
aa(lp5140
g3914
aa(lp5141
g2195
aa(lp5142
g2520
aa(lp5143
g3765
aa(lp5144
g2893
aa(lp5145
g2769
aa(lp5146
g2570
aa(lp5147
g3616
aa(lp5148
g3989
aa(lp5149
g2470
aa(lp5150
g3242
aa(lp5151
g3790
aa(lp5152
g2670
aa(lp5153
g2420
aa(lp5154
g2595
aa(lp5155
g4163
aa(lp5156
g2943
aa(lp5157
g2445
aa(lp5158
g2345
aa(lp5159
g2744
aa(lp5160
g3840
aa(lp5161
g3815
aa(lp5162
g4113
aa(lp5163
g2818
aa(lp5164
g2370
aa(lp5165
g3093
aa(lp5166
g4138
aa(lp5167
g3964
aa(lp5168
g3716
aa(lp5169
g4063
aa(lp5170
g2092
aa(lp5171
g3143
aa(lp5172
g3342
aa(lp5173
g2245
aa(lp5174
g3591
aa(lp5175
g3889
aa(lp5176
g2495
aa(lp5177
g2220
aa(lp5178
g3939
aa(lp5179
g3267
aa(lp5180
g4088
aa(lp5181
g2395
aa(lp5182
g3691
aa(lp5183
g3417
aa(lp5184
g2918
aa(lp5185
g3018
aa(lp5186
g2270
aa(lp5187
g4287
aa(lp5188
g2170
aa(lp5189
g3068
aa(lp5190
g3392
aa(lp5191
g2645
aa(lp5192
g3541
aa(lp5193
g3367
aa(lp5194
g2620
aa(lp5195
g3467
aa(lp5196
g3566
aa(lp5197
g4237
aa(lp5198
g3043
aa(lp5199
g2868
aa(lp5200
g4262
aa(lp5201
g3666
aa(lp5202
g2545
aa(lp5203
g3317
aa(lp5204
g3217
aa(lp5205
g2719
aa(lp5206
g3168
aa(lp5207
g2843
aa(lp5208
g4014
aa(lp5209
g3641
aa(lp5210
g2993
aa(lp5211
g4212
aa(lp5212
g3442
aa(lp5213
g3118
aa(lp5214
g2145
aa(lp5215
g2120
aa(lp5216
g3193
aa(lp5217
g4039
aa(lp5218
g3865
aa(lp5219
g3492
aa(lp5220
g3741
aa(lp5221
g2794
aa(lp5222
g4312
aa(lp5223
g2695
aa(lp5224
g4188
aa(lp5225
g2295
aatp5226
bstp5227
Rp5228
(dp5229
g119
(dp5230
g70
I01
sg18
I01
sg19
I00
sg103
I01
sg17
I00
ssg121
g5013
sg122
(lp5231
g70
ag103
ag17
ag18
ag19
asg124
(lp5232
I90
aI1
asbsg126
g127
sg128
g87
(g73
(I0
tp5233
g75
tp5234
Rp5235
(I1
(I90
I1
tp5236
g135
I00
S'"\x00\x00\x00O\x00\x00\x00N\x00\x00\x004\x00\x00\x00\x05\x00\x00\x00)\x00\x00\x00%\x00\x00\x002\x00\x00\x00Y\x00\x00\x00\x00\x00\x00\x00\x16\x00\x00\x00\x1c\x00\x00\x00-\x00\x00\x00\x11\x00\x00\x00\x15\x00\x00\x00\r\x00\x00\x00(\x00\x00\x00\x06\x00\x00\x00B\x00\x00\x00\n\x00\x00\x00\x12\x00\x00\x00:\x00\x00\x007\x00\x00\x00\x10\x00\x00\x00W\x00\x00\x00E\x00\x00\x00\x17\x00\x00\x00\t\x00\x00\x00U\x00\x00\x00\x1b\x00\x00\x00G\x00\x00\x00?\x00\x00\x00\x08\x00\x00\x000\x00\x00\x00\x14\x00\x00\x00\x03\x00\x00\x00J\x00\x00\x001\x00\x00\x00>\x00\x00\x005\x00\x00\x00\x1d\x00\x00\x00M\x00\x00\x00#\x00\x00\x00F\x00\x00\x00P\x00\x00\x00D\x00\x00\x00\x0e\x00\x00\x00+\x00\x00\x00\x02\x00\x00\x00C\x00\x00\x00$\x00\x00\x009\x00\x00\x006\x00\x00\x00/\x00\x00\x00L\x00\x00\x00;\x00\x00\x00S\x00\x00\x00\x01\x00\x00\x008\x00\x00\x00<\x00\x00\x00&\x00\x00\x00\x0b\x00\x00\x00I\x00\x00\x00A\x00\x00\x00.\x00\x00\x00 \x00\x00\x00T\x00\x00\x00\x07\x00\x00\x00\x0f\x00\x00\x00\x19\x00\x00\x00\x18\x00\x00\x00R\x00\x00\x00\'\x00\x00\x00\x04\x00\x00\x00*\x00\x00\x00\x1f\x00\x00\x00\x0c\x00\x00\x00H\x00\x00\x00Q\x00\x00\x00!\x00\x00\x00,\x00\x00\x00\x1a\x00\x00\x00\x1e\x00\x00\x00\x13\x00\x00\x00X\x00\x00\x00K\x00\x00\x00=\x00\x00\x00@\x00\x00\x003\x00\x00\x00V\x00\x00\x00'
p5237
tp5238
bsg140
I01
sg141
I1
sg142
I-1
sg143
(lp5239
g53
((lp5240
(lp5241
g2082
ag2325
aa(lp5242
g2083
ag2340
aa(lp5243
g2084
ag2323
aa(lp5244
g2085
ag2328
aa(lp5245
g2086
ag203
aatp5246
Rp5247
ag53
((lp5248
(lp5249
g2082
ag3521
aa(lp5250
g2083
ag3536
aa(lp5251
g2084
ag3519
aa(lp5252
g2085
ag3524
aa(lp5253
g2086
ag203
aatp5254
Rp5255
ag53
((lp5256
(lp5257
g2082
ag3297
aa(lp5258
g2083
ag3312
aa(lp5259
g2084
ag3295
aa(lp5260
g2085
ag3300
aa(lp5261
g2086
ag203
aatp5262
Rp5263
ag53
((lp5264
(lp5265
g2082
ag2973
aa(lp5266
g2083
ag2988
aa(lp5267
g2084
ag2971
aa(lp5268
g2085
ag2976
aa(lp5269
g2086
ag203
aatp5270
Rp5271
ag53
((lp5272
(lp5273
g2082
ag3919
aa(lp5274
g2083
ag3934
aa(lp5275
g2084
ag3917
aa(lp5276
g2085
ag3922
aa(lp5277
g2086
ag203
aatp5278
Rp5279
ag53
((lp5280
(lp5281
g2082
ag2200
aa(lp5282
g2083
ag2215
aa(lp5283
g2084
ag2198
aa(lp5284
g2085
ag2203
aa(lp5285
g2086
ag203
aatp5286
Rp5287
ag53
((lp5288
(lp5289
g2082
ag2525
aa(lp5290
g2083
ag2540
aa(lp5291
g2084
ag2523
aa(lp5292
g2085
ag2528
aa(lp5293
g2086
ag203
aatp5294
Rp5295
ag53
((lp5296
(lp5297
g2082
ag3770
aa(lp5298
g2083
ag3785
aa(lp5299
g2084
ag3768
aa(lp5300
g2085
ag3773
aa(lp5301
g2086
ag203
aatp5302
Rp5303
ag53
((lp5304
(lp5305
g2082
ag2898
aa(lp5306
g2083
ag2913
aa(lp5307
g2084
ag2896
aa(lp5308
g2085
ag2901
aa(lp5309
g2086
ag203
aatp5310
Rp5311
ag53
((lp5312
(lp5313
g2082
ag2774
aa(lp5314
g2083
ag2789
aa(lp5315
g2084
ag2772
aa(lp5316
g2085
ag2777
aa(lp5317
g2086
ag203
aatp5318
Rp5319
ag53
((lp5320
(lp5321
g2082
ag2575
aa(lp5322
g2083
ag2590
aa(lp5323
g2084
ag2573
aa(lp5324
g2085
ag2578
aa(lp5325
g2086
ag203
aatp5326
Rp5327
ag53
((lp5328
(lp5329
g2082
ag3621
aa(lp5330
g2083
ag3636
aa(lp5331
g2084
ag3619
aa(lp5332
g2085
ag3624
aa(lp5333
g2086
ag203
aatp5334
Rp5335
ag53
((lp5336
(lp5337
g2082
ag3994
aa(lp5338
g2083
ag4009
aa(lp5339
g2084
ag3992
aa(lp5340
g2085
ag3997
aa(lp5341
g2086
ag203
aatp5342
Rp5343
ag53
((lp5344
(lp5345
g2082
ag2475
aa(lp5346
g2083
ag2490
aa(lp5347
g2084
ag2473
aa(lp5348
g2085
ag2478
aa(lp5349
g2086
ag203
aatp5350
Rp5351
ag53
((lp5352
(lp5353
g2082
ag3247
aa(lp5354
g2083
ag3262
aa(lp5355
g2084
ag3245
aa(lp5356
g2085
ag3250
aa(lp5357
g2086
ag203
aatp5358
Rp5359
ag53
((lp5360
(lp5361
g2082
ag3795
aa(lp5362
g2083
ag3810
aa(lp5363
g2084
ag3793
aa(lp5364
g2085
ag3798
aa(lp5365
g2086
ag203
aatp5366
Rp5367
ag53
((lp5368
(lp5369
g2082
ag2675
aa(lp5370
g2083
ag2690
aa(lp5371
g2084
ag2673
aa(lp5372
g2085
ag2678
aa(lp5373
g2086
ag203
aatp5374
Rp5375
ag53
((lp5376
(lp5377
g2082
ag2425
aa(lp5378
g2083
ag2440
aa(lp5379
g2084
ag2423
aa(lp5380
g2085
ag2428
aa(lp5381
g2086
ag203
aatp5382
Rp5383
ag53
((lp5384
(lp5385
g2082
ag2600
aa(lp5386
g2083
ag2615
aa(lp5387
g2084
ag2598
aa(lp5388
g2085
ag2603
aa(lp5389
g2086
ag203
aatp5390
Rp5391
ag53
((lp5392
(lp5393
g2082
ag4168
aa(lp5394
g2083
ag4183
aa(lp5395
g2084
ag4166
aa(lp5396
g2085
ag4171
aa(lp5397
g2086
ag203
aatp5398
Rp5399
ag53
((lp5400
(lp5401
g2082
ag2948
aa(lp5402
g2083
ag2963
aa(lp5403
g2084
ag2946
aa(lp5404
g2085
ag2951
aa(lp5405
g2086
ag203
aatp5406
Rp5407
ag53
((lp5408
(lp5409
g2082
ag2450
aa(lp5410
g2083
ag2465
aa(lp5411
g2084
ag2448
aa(lp5412
g2085
ag2453
aa(lp5413
g2086
ag203
aatp5414
Rp5415
ag53
((lp5416
(lp5417
g2082
ag2350
aa(lp5418
g2083
ag2365
aa(lp5419
g2084
ag2348
aa(lp5420
g2085
ag2353
aa(lp5421
g2086
ag203
aatp5422
Rp5423
ag53
((lp5424
(lp5425
g2082
ag2749
aa(lp5426
g2083
ag2764
aa(lp5427
g2084
ag2747
aa(lp5428
g2085
ag2752
aa(lp5429
g2086
ag203
aatp5430
Rp5431
ag53
((lp5432
(lp5433
g2082
ag3845
aa(lp5434
g2083
ag3860
aa(lp5435
g2084
ag3843
aa(lp5436
g2085
ag3848
aa(lp5437
g2086
ag203
aatp5438
Rp5439
ag53
((lp5440
(lp5441
g2082
ag3820
aa(lp5442
g2083
ag3835
aa(lp5443
g2084
ag3818
aa(lp5444
g2085
ag3823
aa(lp5445
g2086
ag203
aatp5446
Rp5447
ag53
((lp5448
(lp5449
g2082
ag4118
aa(lp5450
g2083
ag4133
aa(lp5451
g2084
ag4116
aa(lp5452
g2085
ag4121
aa(lp5453
g2086
ag203
aatp5454
Rp5455
ag53
((lp5456
(lp5457
g2082
ag2823
aa(lp5458
g2083
ag2838
aa(lp5459
g2084
ag2821
aa(lp5460
g2085
ag2826
aa(lp5461
g2086
ag203
aatp5462
Rp5463
ag53
((lp5464
(lp5465
g2082
ag2375
aa(lp5466
g2083
ag2390
aa(lp5467
g2084
ag2373
aa(lp5468
g2085
ag2378
aa(lp5469
g2086
ag203
aatp5470
Rp5471
ag53
((lp5472
(lp5473
g2082
ag3098
aa(lp5474
g2083
ag3113
aa(lp5475
g2084
ag3096
aa(lp5476
g2085
ag3101
aa(lp5477
g2086
ag203
aatp5478
Rp5479
ag53
((lp5480
(lp5481
g2082
ag4143
aa(lp5482
g2083
ag4158
aa(lp5483
g2084
ag4141
aa(lp5484
g2085
ag4146
aa(lp5485
g2086
ag203
aatp5486
Rp5487
ag53
((lp5488
(lp5489
g2082
ag3969
aa(lp5490
g2083
ag3984
aa(lp5491
g2084
ag3967
aa(lp5492
g2085
ag3972
aa(lp5493
g2086
ag203
aatp5494
Rp5495
ag53
((lp5496
(lp5497
g2082
ag3721
aa(lp5498
g2083
ag3736
aa(lp5499
g2084
ag3719
aa(lp5500
g2085
ag3724
aa(lp5501
g2086
ag203
aatp5502
Rp5503
ag53
((lp5504
(lp5505
g2082
ag4068
aa(lp5506
g2083
ag4083
aa(lp5507
g2084
ag4066
aa(lp5508
g2085
ag4071
aa(lp5509
g2086
ag203
aatp5510
Rp5511
ag53
((lp5512
(lp5513
g2082
ag2100
aa(lp5514
g2083
ag2115
aa(lp5515
g2084
ag2095
aa(lp5516
g2085
ag2103
aa(lp5517
g2086
ag203
aatp5518
Rp5519
ag53
((lp5520
(lp5521
g2082
ag3148
aa(lp5522
g2083
ag3163
aa(lp5523
g2084
ag3146
aa(lp5524
g2085
ag3151
aa(lp5525
g2086
ag203
aatp5526
Rp5527
ag53
((lp5528
(lp5529
g2082
ag3347
aa(lp5530
g2083
ag3362
aa(lp5531
g2084
ag3345
aa(lp5532
g2085
ag3350
aa(lp5533
g2086
ag203
aatp5534
Rp5535
ag53
((lp5536
(lp5537
g2082
ag2250
aa(lp5538
g2083
ag2265
aa(lp5539
g2084
ag2248
aa(lp5540
g2085
ag2253
aa(lp5541
g2086
ag203
aatp5542
Rp5543
ag53
((lp5544
(lp5545
g2082
ag3596
aa(lp5546
g2083
ag3611
aa(lp5547
g2084
ag3594
aa(lp5548
g2085
ag3599
aa(lp5549
g2086
ag203
aatp5550
Rp5551
ag53
((lp5552
(lp5553
g2082
ag3894
aa(lp5554
g2083
ag3909
aa(lp5555
g2084
ag3892
aa(lp5556
g2085
ag3897
aa(lp5557
g2086
ag203
aatp5558
Rp5559
ag53
((lp5560
(lp5561
g2082
ag2500
aa(lp5562
g2083
ag2515
aa(lp5563
g2084
ag2498
aa(lp5564
g2085
ag2503
aa(lp5565
g2086
ag203
aatp5566
Rp5567
ag53
((lp5568
(lp5569
g2082
ag2225
aa(lp5570
g2083
ag2240
aa(lp5571
g2084
ag2223
aa(lp5572
g2085
ag2228
aa(lp5573
g2086
ag203
aatp5574
Rp5575
ag53
((lp5576
(lp5577
g2082
ag3944
aa(lp5578
g2083
ag3959
aa(lp5579
g2084
ag3942
aa(lp5580
g2085
ag3947
aa(lp5581
g2086
ag203
aatp5582
Rp5583
ag53
((lp5584
(lp5585
g2082
ag3272
aa(lp5586
g2083
ag3287
aa(lp5587
g2084
ag3270
aa(lp5588
g2085
ag3275
aa(lp5589
g2086
ag203
aatp5590
Rp5591
ag53
((lp5592
(lp5593
g2082
ag4093
aa(lp5594
g2083
ag4108
aa(lp5595
g2084
ag4091
aa(lp5596
g2085
ag4096
aa(lp5597
g2086
ag203
aatp5598
Rp5599
ag53
((lp5600
(lp5601
g2082
ag2400
aa(lp5602
g2083
ag2415
aa(lp5603
g2084
ag2398
aa(lp5604
g2085
ag2403
aa(lp5605
g2086
ag203
aatp5606
Rp5607
ag53
((lp5608
(lp5609
g2082
ag3696
aa(lp5610
g2083
ag3711
aa(lp5611
g2084
ag3694
aa(lp5612
g2085
ag3699
aa(lp5613
g2086
ag203
aatp5614
Rp5615
ag53
((lp5616
(lp5617
g2082
ag3422
aa(lp5618
g2083
ag3437
aa(lp5619
g2084
ag3420
aa(lp5620
g2085
ag3425
aa(lp5621
g2086
ag203
aatp5622
Rp5623
ag53
((lp5624
(lp5625
g2082
ag2923
aa(lp5626
g2083
ag2938
aa(lp5627
g2084
ag2921
aa(lp5628
g2085
ag2926
aa(lp5629
g2086
ag203
aatp5630
Rp5631
ag53
((lp5632
(lp5633
g2082
ag3023
aa(lp5634
g2083
ag3038
aa(lp5635
g2084
ag3021
aa(lp5636
g2085
ag3026
aa(lp5637
g2086
ag203
aatp5638
Rp5639
ag53
((lp5640
(lp5641
g2082
ag2275
aa(lp5642
g2083
ag2290
aa(lp5643
g2084
ag2273
aa(lp5644
g2085
ag2278
aa(lp5645
g2086
ag203
aatp5646
Rp5647
ag53
((lp5648
(lp5649
g2082
ag4292
aa(lp5650
g2083
ag4307
aa(lp5651
g2084
ag4290
aa(lp5652
g2085
ag4295
aa(lp5653
g2086
ag203
aatp5654
Rp5655
ag53
((lp5656
(lp5657
g2082
ag2175
aa(lp5658
g2083
ag2190
aa(lp5659
g2084
ag2173
aa(lp5660
g2085
ag2178
aa(lp5661
g2086
ag203
aatp5662
Rp5663
ag53
((lp5664
(lp5665
g2082
ag3073
aa(lp5666
g2083
ag3088
aa(lp5667
g2084
ag3071
aa(lp5668
g2085
ag3076
aa(lp5669
g2086
ag203
aatp5670
Rp5671
ag53
((lp5672
(lp5673
g2082
ag3397
aa(lp5674
g2083
ag3412
aa(lp5675
g2084
ag3395
aa(lp5676
g2085
ag3400
aa(lp5677
g2086
ag203
aatp5678
Rp5679
ag53
((lp5680
(lp5681
g2082
ag2650
aa(lp5682
g2083
ag2665
aa(lp5683
g2084
ag2648
aa(lp5684
g2085
ag2653
aa(lp5685
g2086
ag203
aatp5686
Rp5687
ag53
((lp5688
(lp5689
g2082
ag3546
aa(lp5690
g2083
ag3561
aa(lp5691
g2084
ag3544
aa(lp5692
g2085
ag3549
aa(lp5693
g2086
ag203
aatp5694
Rp5695
ag53
((lp5696
(lp5697
g2082
ag3372
aa(lp5698
g2083
ag3387
aa(lp5699
g2084
ag3370
aa(lp5700
g2085
ag3375
aa(lp5701
g2086
ag203
aatp5702
Rp5703
ag53
((lp5704
(lp5705
g2082
ag2625
aa(lp5706
g2083
ag2640
aa(lp5707
g2084
ag2623
aa(lp5708
g2085
ag2628
aa(lp5709
g2086
ag203
aatp5710
Rp5711
ag53
((lp5712
(lp5713
g2082
ag3472
aa(lp5714
g2083
ag3487
aa(lp5715
g2084
ag3470
aa(lp5716
g2085
ag3475
aa(lp5717
g2086
ag203
aatp5718
Rp5719
ag53
((lp5720
(lp5721
g2082
ag3571
aa(lp5722
g2083
ag3586
aa(lp5723
g2084
ag3569
aa(lp5724
g2085
ag3574
aa(lp5725
g2086
ag203
aatp5726
Rp5727
ag53
((lp5728
(lp5729
g2082
ag4242
aa(lp5730
g2083
ag4257
aa(lp5731
g2084
ag4240
aa(lp5732
g2085
ag4245
aa(lp5733
g2086
ag203
aatp5734
Rp5735
ag53
((lp5736
(lp5737
g2082
ag3048
aa(lp5738
g2083
ag3063
aa(lp5739
g2084
ag3046
aa(lp5740
g2085
ag3051
aa(lp5741
g2086
ag203
aatp5742
Rp5743
ag53
((lp5744
(lp5745
g2082
ag2873
aa(lp5746
g2083
ag2888
aa(lp5747
g2084
ag2871
aa(lp5748
g2085
ag2876
aa(lp5749
g2086
ag203
aatp5750
Rp5751
ag53
((lp5752
(lp5753
g2082
ag4267
aa(lp5754
g2083
ag4282
aa(lp5755
g2084
ag4265
aa(lp5756
g2085
ag4270
aa(lp5757
g2086
ag203
aatp5758
Rp5759
ag53
((lp5760
(lp5761
g2082
ag3671
aa(lp5762
g2083
ag3686
aa(lp5763
g2084
ag3669
aa(lp5764
g2085
ag3674
aa(lp5765
g2086
ag203
aatp5766
Rp5767
ag53
((lp5768
(lp5769
g2082
ag2550
aa(lp5770
g2083
ag2565
aa(lp5771
g2084
ag2548
aa(lp5772
g2085
ag2553
aa(lp5773
g2086
ag203
aatp5774
Rp5775
ag53
((lp5776
(lp5777
g2082
ag3322
aa(lp5778
g2083
ag3337
aa(lp5779
g2084
ag3320
aa(lp5780
g2085
ag3325
aa(lp5781
g2086
ag203
aatp5782
Rp5783
ag53
((lp5784
(lp5785
g2082
ag3222
aa(lp5786
g2083
ag3237
aa(lp5787
g2084
ag3220
aa(lp5788
g2085
ag3225
aa(lp5789
g2086
ag203
aatp5790
Rp5791
ag53
((lp5792
(lp5793
g2082
ag2724
aa(lp5794
g2083
ag2739
aa(lp5795
g2084
ag2722
aa(lp5796
g2085
ag2727
aa(lp5797
g2086
ag203
aatp5798
Rp5799
ag53
((lp5800
(lp5801
g2082
ag3173
aa(lp5802
g2083
ag3188
aa(lp5803
g2084
ag3171
aa(lp5804
g2085
ag3176
aa(lp5805
g2086
ag203
aatp5806
Rp5807
ag53
((lp5808
(lp5809
g2082
ag2848
aa(lp5810
g2083
ag2863
aa(lp5811
g2084
ag2846
aa(lp5812
g2085
ag2851
aa(lp5813
g2086
ag203
aatp5814
Rp5815
ag53
((lp5816
(lp5817
g2082
ag4019
aa(lp5818
g2083
ag4034
aa(lp5819
g2084
ag4017
aa(lp5820
g2085
ag4022
aa(lp5821
g2086
ag203
aatp5822
Rp5823
ag53
((lp5824
(lp5825
g2082
ag3646
aa(lp5826
g2083
ag3661
aa(lp5827
g2084
ag3644
aa(lp5828
g2085
ag3649
aa(lp5829
g2086
ag203
aatp5830
Rp5831
ag53
((lp5832
(lp5833
g2082
ag2998
aa(lp5834
g2083
ag3013
aa(lp5835
g2084
ag2996
aa(lp5836
g2085
ag3001
aa(lp5837
g2086
ag203
aatp5838
Rp5839
ag53
((lp5840
(lp5841
g2082
ag4217
aa(lp5842
g2083
ag4232
aa(lp5843
g2084
ag4215
aa(lp5844
g2085
ag4220
aa(lp5845
g2086
ag203
aatp5846
Rp5847
ag53
((lp5848
(lp5849
g2082
ag3447
aa(lp5850
g2083
ag3462
aa(lp5851
g2084
ag3445
aa(lp5852
g2085
ag3450
aa(lp5853
g2086
ag203
aatp5854
Rp5855
ag53
((lp5856
(lp5857
g2082
ag3123
aa(lp5858
g2083
ag3138
aa(lp5859
g2084
ag3121
aa(lp5860
g2085
ag3126
aa(lp5861
g2086
ag203
aatp5862
Rp5863
ag53
((lp5864
(lp5865
g2082
ag2150
aa(lp5866
g2083
ag2165
aa(lp5867
g2084
ag2148
aa(lp5868
g2085
ag2153
aa(lp5869
g2086
ag203
aatp5870
Rp5871
ag53
((lp5872
(lp5873
g2082
ag2125
aa(lp5874
g2083
ag2140
aa(lp5875
g2084
ag2123
aa(lp5876
g2085
ag2128
aa(lp5877
g2086
ag203
aatp5878
Rp5879
ag53
((lp5880
(lp5881
g2082
ag2300
aa(lp5882
g2083
ag3212
aa(lp5883
g2084
ag3196
aa(lp5884
g2085
ag3200
aa(lp5885
g2086
ag1916
aatp5886
Rp5887
ag53
((lp5888
(lp5889
g2082
ag2300
aa(lp5890
g2083
ag4058
aa(lp5891
g2084
ag4042
aa(lp5892
g2085
ag4046
aa(lp5893
g2086
ag1916
aatp5894
Rp5895
ag53
((lp5896
(lp5897
g2082
ag2300
aa(lp5898
g2083
ag3884
aa(lp5899
g2084
ag3868
aa(lp5900
g2085
ag3872
aa(lp5901
g2086
ag1916
aatp5902
Rp5903
ag53
((lp5904
(lp5905
g2082
ag2300
aa(lp5906
g2083
ag3511
aa(lp5907
g2084
ag3495
aa(lp5908
g2085
ag3499
aa(lp5909
g2086
ag1916
aatp5910
Rp5911
ag53
((lp5912
(lp5913
g2082
ag2300
aa(lp5914
g2083
ag3760
aa(lp5915
g2084
ag3744
aa(lp5916
g2085
ag3748
aa(lp5917
g2086
ag1916
aatp5918
Rp5919
ag53
((lp5920
(lp5921
g2082
ag2300
aa(lp5922
g2083
ag2813
aa(lp5923
g2084
ag2797
aa(lp5924
g2085
ag2801
aa(lp5925
g2086
ag1916
aatp5926
Rp5927
ag53
((lp5928
(lp5929
g2082
ag2300
aa(lp5930
g2083
ag4331
aa(lp5931
g2084
ag4315
aa(lp5932
g2085
ag4319
aa(lp5933
g2086
ag1916
aatp5934
Rp5935
ag53
((lp5936
(lp5937
g2082
ag2300
aa(lp5938
g2083
ag2714
aa(lp5939
g2084
ag2698
aa(lp5940
g2085
ag2702
aa(lp5941
g2086
ag1916
aatp5942
Rp5943
ag53
((lp5944
(lp5945
g2082
ag2300
aa(lp5946
g2083
ag4207
aa(lp5947
g2084
ag4191
aa(lp5948
g2085
ag4195
aa(lp5949
g2086
ag1916
aatp5950
Rp5951
ag53
((lp5952
(lp5953
g2082
ag2300
aa(lp5954
g2083
ag2315
aa(lp5955
g2084
ag2298
aa(lp5956
g2085
ag2303
aa(lp5957
g2086
ag1916
aatp5958
Rp5959
asg166
Nsg167
g4323
sg171
I90
sg172
I0
sg173
I90
sbag175
asS'savePickle'
p5960
I00
sb.